
asm_test/riscv_floating_point_arithmetic_test_0.bin:     file format binary


Disassembly of section .data:

0000000000000000 <.data>:
       0:	f14022f3          	csrrs	t0,mhartid,zero
       4:	00000313          	addi	t1,zero,0
       8:	00628263          	beq	t0,t1,0xc
       c:	00000f97          	auipc	t6,0x0
      10:	00cf8f93          	addi	t6,t6,12 # 0x18
      14:	000f8067          	jalr	zero,0(t6)
      18:	40001d37          	lui	s10,0x40001
      1c:	120d0d13          	addi	s10,s10,288 # 0x40001120
      20:	301d1073          	csrrw	zero,misa,s10
      24:	00008497          	auipc	s1,0x8
      28:	fc048493          	addi	s1,s1,-64 # 0x7fe4
      2c:	00002d17          	auipc	s10,0x2
      30:	064d0d13          	addi	s10,s10,100 # 0x2090
      34:	001d6d13          	ori	s10,s10,1
      38:	305d1073          	csrrw	zero,mtvec,s10
      3c:	00000d17          	auipc	s10,0x0
      40:	024d0d13          	addi	s10,s10,36 # 0x60
      44:	341d1073          	csrrw	zero,mepc,s10
      48:	00004d37          	lui	s10,0x4
      4c:	c00d0d13          	addi	s10,s10,-1024 # 0x3c00
      50:	300d1073          	csrrw	zero,mstatus,s10
      54:	00000d13          	addi	s10,zero,0
      58:	304d1073          	csrrw	zero,mie,s10
      5c:	30200073          	mret
      60:	ff800d37          	lui	s10,0xff800
      64:	f00d0053          	fmv.w.x	ft0,s10
      68:	ff800d37          	lui	s10,0xff800
      6c:	f00d00d3          	fmv.w.x	ft1,s10
      70:	80000d37          	lui	s10,0x80000
      74:	f00d0153          	fmv.w.x	ft2,s10
      78:	5bdaed37          	lui	s10,0x5bdae
      7c:	282d0d13          	addi	s10,s10,642 # 0x5bdae282
      80:	f00d01d3          	fmv.w.x	ft3,s10
      84:	747e3d37          	lui	s10,0x747e3
      88:	a51d0d13          	addi	s10,s10,-1455 # 0x747e2a51
      8c:	f00d0253          	fmv.w.x	ft4,s10
      90:	ff800d37          	lui	s10,0xff800
      94:	fffd0d13          	addi	s10,s10,-1 # 0xffffffffff7fffff
      98:	f00d02d3          	fmv.w.x	ft5,s10
      9c:	e0babd37          	lui	s10,0xe0bab
      a0:	9e6d0d13          	addi	s10,s10,-1562 # 0xffffffffe0baa9e6
      a4:	f00d0353          	fmv.w.x	ft6,s10
      a8:	7f800d37          	lui	s10,0x7f800
      ac:	f00d03d3          	fmv.w.x	ft7,s10
      b0:	ff800d37          	lui	s10,0xff800
      b4:	fffd0d13          	addi	s10,s10,-1 # 0xffffffffff7fffff
      b8:	f00d0453          	fmv.w.x	fs0,s10
      bc:	ce0dfd37          	lui	s10,0xce0df
      c0:	cc7d0d13          	addi	s10,s10,-825 # 0xffffffffce0decc7
      c4:	f00d04d3          	fmv.w.x	fs1,s10
      c8:	65944d37          	lui	s10,0x65944
      cc:	ac9d0d13          	addi	s10,s10,-1335 # 0x65943ac9
      d0:	f00d0553          	fmv.w.x	fa0,s10
      d4:	7f800d37          	lui	s10,0x7f800
      d8:	f00d05d3          	fmv.w.x	fa1,s10
      dc:	000cad37          	lui	s10,0xca
      e0:	00bd0d13          	addi	s10,s10,11 # 0xca00b
      e4:	f00d0653          	fmv.w.x	fa2,s10
      e8:	7f800d37          	lui	s10,0x7f800
      ec:	f00d06d3          	fmv.w.x	fa3,s10
      f0:	ff800d37          	lui	s10,0xff800
      f4:	f00d0753          	fmv.w.x	fa4,s10
      f8:	ff800d37          	lui	s10,0xff800
      fc:	fffd0d13          	addi	s10,s10,-1 # 0xffffffffff7fffff
     100:	f00d07d3          	fmv.w.x	fa5,s10
     104:	7fc00d37          	lui	s10,0x7fc00
     108:	f00d0853          	fmv.w.x	fa6,s10
     10c:	75a41d37          	lui	s10,0x75a41
     110:	b8cd0d13          	addi	s10,s10,-1140 # 0x75a40b8c
     114:	f00d08d3          	fmv.w.x	fa7,s10
     118:	d266ad37          	lui	s10,0xd266a
     11c:	22cd0d13          	addi	s10,s10,556 # 0xffffffffd266a22c
     120:	f00d0953          	fmv.w.x	fs2,s10
     124:	7f800d37          	lui	s10,0x7f800
     128:	f00d09d3          	fmv.w.x	fs3,s10
     12c:	00000d13          	addi	s10,zero,0
     130:	f00d0a53          	fmv.w.x	fs4,s10
     134:	80000d37          	lui	s10,0x80000
     138:	f00d0ad3          	fmv.w.x	fs5,s10
     13c:	7f800d37          	lui	s10,0x7f800
     140:	001d0d13          	addi	s10,s10,1 # 0x7f800001
     144:	f00d0b53          	fmv.w.x	fs6,s10
     148:	7fc00d37          	lui	s10,0x7fc00
     14c:	f00d0bd3          	fmv.w.x	fs7,s10
     150:	00728d37          	lui	s10,0x728
     154:	bb5d0d13          	addi	s10,s10,-1099 # 0x727bb5
     158:	f00d0c53          	fmv.w.x	fs8,s10
     15c:	ff800d37          	lui	s10,0xff800
     160:	fffd0d13          	addi	s10,s10,-1 # 0xffffffffff7fffff
     164:	f00d0cd3          	fmv.w.x	fs9,s10
     168:	80000d37          	lui	s10,0x80000
     16c:	f00d0d53          	fmv.w.x	fs10,s10
     170:	56625d37          	lui	s10,0x56625
     174:	bd3d0d13          	addi	s10,s10,-1069 # 0x56624bd3
     178:	f00d0dd3          	fmv.w.x	fs11,s10
     17c:	7f800d37          	lui	s10,0x7f800
     180:	fffd0d13          	addi	s10,s10,-1 # 0x7f7fffff
     184:	f00d0e53          	fmv.w.x	ft8,s10
     188:	ff800d37          	lui	s10,0xff800
     18c:	f00d0ed3          	fmv.w.x	ft9,s10
     190:	ff800d37          	lui	s10,0xff800
     194:	fffd0d13          	addi	s10,s10,-1 # 0xffffffffff7fffff
     198:	f00d0f53          	fmv.w.x	ft10,s10
     19c:	80000d37          	lui	s10,0x80000
     1a0:	f00d0fd3          	fmv.w.x	ft11,s10
     1a4:	0021d073          	csrrwi	zero,frm,3
     1a8:	fd5f5037          	lui	zero,0xfd5f5
     1ac:	c8100013          	addi	zero,zero,-895
     1b0:	00c00093          	addi	ra,zero,12
     1b4:	00000113          	addi	sp,zero,0
     1b8:	4aea61b7          	lui	gp,0x4aea6
     1bc:	bcf18193          	addi	gp,gp,-1073 # 0x4aea5bcf
     1c0:	80000237          	lui	tp,0x80000
     1c4:	fb0562b7          	lui	t0,0xfb056
     1c8:	24628293          	addi	t0,t0,582 # 0xfffffffffb056246
     1cc:	00500313          	addi	t1,zero,5
     1d0:	00e00393          	addi	t2,zero,14
     1d4:	c2721437          	lui	s0,0xc2721
     1d8:	32a40413          	addi	s0,s0,810 # 0xffffffffc272132a
     1dc:	50fa8537          	lui	a0,0x50fa8
     1e0:	df350513          	addi	a0,a0,-525 # 0x50fa7df3
     1e4:	ad1535b7          	lui	a1,0xad153
     1e8:	7f758593          	addi	a1,a1,2039 # 0xffffffffad1537f7
     1ec:	1ef58637          	lui	a2,0x1ef58
     1f0:	ece60613          	addi	a2,a2,-306 # 0x1ef57ece
     1f4:	00600693          	addi	a3,zero,6
     1f8:	00b00713          	addi	a4,zero,11
     1fc:	c0cd77b7          	lui	a5,0xc0cd7
     200:	b3178793          	addi	a5,a5,-1231 # 0xffffffffc0cd6b31
     204:	00f00813          	addi	a6,zero,15
     208:	d6c098b7          	lui	a7,0xd6c09
     20c:	20888893          	addi	a7,a7,520 # 0xffffffffd6c09208
     210:	00000913          	addi	s2,zero,0
     214:	800009b7          	lui	s3,0x80000
     218:	00c00a13          	addi	s4,zero,12
     21c:	00300a93          	addi	s5,zero,3
     220:	00000b13          	addi	s6,zero,0
     224:	00000b93          	addi	s7,zero,0
     228:	d71dec37          	lui	s8,0xd71de
     22c:	39dc0c13          	addi	s8,s8,925 # 0xffffffffd71de39d
     230:	00000c93          	addi	s9,zero,0
     234:	fe51ad37          	lui	s10,0xfe51a
     238:	8ecd0d13          	addi	s10,s10,-1812 # 0xfffffffffe5198ec
     23c:	18c26db7          	lui	s11,0x18c26
     240:	d34d8d93          	addi	s11,s11,-716 # 0x18c25d34
     244:	80000e37          	lui	t3,0x80000
     248:	1e8c6eb7          	lui	t4,0x1e8c6
     24c:	f97e8e93          	addi	t4,t4,-105 # 0x1e8c5f97
     250:	f11a0fb7          	lui	t6,0xf11a0
     254:	a46f8f93          	addi	t6,t6,-1466 # 0xfffffffff119fa46
     258:	00007f17          	auipc	t5,0x7
     25c:	5bcf0f13          	addi	t5,t5,1468 # 0x7814
     260:	00370533          	add	a0,a4,gp
     264:	02c2aa33          	mulhsu	s4,t0,a2
     268:	03a7dbb3          	divu	s7,a5,s10
     26c:	580f8d13          	addi	s10,t6,1408
     270:	207f2a53          	fsgnjx.s	fs4,ft10,ft7
     274:	09caf053          	fsub.s	ft0,fs5,ft8
     278:	209c92d3          	fsgnjn.s	ft5,fs9,fs1
     27c:	00000013          	addi	zero,zero,0
     280:	e00a1753          	fclass.s	a4,fs4
     284:	00f1fd33          	and	s10,gp,a5
     288:	001c3633          	sltu	a2,s8,ra
     28c:	cdc55697          	auipc	a3,0xcdc55
     290:	00000013          	addi	zero,zero,0
     294:	a944b293          	sltiu	t0,s1,-1388
     298:	f00280d3          	fmv.w.x	ft1,t0
     29c:	6f3daa13          	slti	s4,s11,1779
     2a0:	002cf333          	and	t1,s9,sp
     2a4:	01bf2db3          	slt	s11,t5,s11
     2a8:	011653b3          	srl	t2,a2,a7
     2ac:	192c7053          	fdiv.s	ft0,fs8,fs2
     2b0:	e0028b53          	fmv.x.w	s6,ft5
     2b4:	d48c4e93          	xori	t4,s8,-696
     2b8:	fed47db7          	lui	s11,0xfed47
     2bc:	f00a8d53          	fmv.w.x	fs10,s5
     2c0:	1078f953          	fmul.s	fs2,fa7,ft7
     2c4:	a0a62253          	feq.s	tp,fa2,fa0
     2c8:	01dee0b3          	or	ra,t4,t4
     2cc:	217b89d3          	fsgnj.s	fs3,fs7,fs7
     2d0:	e0009053          	fclass.s	zero,ft1
     2d4:	02fea7b3          	mulhsu	a5,t4,a5
     2d8:	a0069053          	flt.s	zero,fa3,ft0
     2dc:	d00575d3          	fcvt.s.w	fa1,a0
     2e0:	28bf9253          	fmax.s	ft4,ft11,fa1
     2e4:	6600b593          	sltiu	a1,ra,1632
     2e8:	fbdfe013          	ori	zero,t6,-67
     2ec:	00c6b033          	sltu	zero,a3,a2
     2f0:	f0018353          	fmv.w.x	ft6,gp
     2f4:	a0d21853          	flt.s	a6,ft4,fa3
     2f8:	213b0e53          	fsgnj.s	ft8,fs6,fs3
     2fc:	2292fa93          	andi	s5,t0,553
     300:	8137d617          	auipc	a2,0x8137d
     304:	01d12233          	slt	tp,sp,t4
     308:	2ca72713          	slti	a4,a4,714
     30c:	00f94633          	xor	a2,s2,a5
     310:	fa114c93          	xori	s9,sp,-95
     314:	03548bb3          	mul	s7,s1,s5
     318:	034c2933          	mulhsu	s2,s8,s4
     31c:	a16b12d3          	flt.s	t0,fs6,fs6
     320:	a0398dd3          	fle.s	s11,fs3,ft3
     324:	291406d3          	fmin.s	fa3,fs0,fa7
     328:	02793eb3          	mulhu	t4,s2,t2
     32c:	016da8b3          	slt	a7,s11,s6
     330:	01fb9ab3          	sll	s5,s7,t6
     334:	c003f3d3          	fcvt.w.s	t2,ft7
     338:	53163513          	sltiu	a0,a2,1329
     33c:	013652b3          	srl	t0,a2,s3
     340:	40ac5833          	sra	a6,s8,a0
     344:	412bd893          	srai	a7,s7,0x12
     348:	f00388d3          	fmv.w.x	fa7,t2
     34c:	29c185d3          	fmin.s	fa1,ft3,ft8
     350:	d9c74c93          	xori	s9,a4,-612
     354:	00996e33          	or	t3,s2,s1
     358:	00d49d93          	slli	s11,s1,0xd
     35c:	01f02c33          	slt	s8,zero,t6
     360:	00245513          	srli	a0,s0,0x2
     364:	734a6593          	ori	a1,s4,1844
     368:	d0097ad3          	fcvt.s.w	fs5,s2
     36c:	026e48b3          	div	a7,t3,t1
     370:	03bbd033          	divu	zero,s7,s11
     374:	a06292d3          	flt.s	t0,ft5,ft6
     378:	20ea2653          	fsgnjx.s	fa2,fs4,fa4
     37c:	0166ecb3          	or	s9,a3,s6
     380:	fdae8b93          	addi	s7,t4,-38
     384:	03e12733          	mulhsu	a4,sp,t5
     388:	a12b12d3          	flt.s	t0,fs6,fs2
     38c:	a1d499d3          	flt.s	s3,fs1,ft9
     390:	02743033          	mulhu	zero,s0,t2
     394:	00000013          	addi	zero,zero,0
     398:	c00572d3          	fcvt.w.s	t0,fa0
     39c:	c0057053          	fcvt.w.s	zero,fa0
     3a0:	29f611d3          	fmax.s	ft3,fa2,ft11
     3a4:	00000013          	addi	zero,zero,0
     3a8:	005cbab3          	sltu	s5,s9,t0
     3ac:	00a322b3          	slt	t0,t1,a0
     3b0:	208d0053          	fsgnj.s	ft0,fs10,fs0
     3b4:	ccbef893          	andi	a7,t4,-821
     3b8:	022d2933          	mulhsu	s2,s10,sp
     3bc:	03cc9c33          	mulh	s8,s9,t3
     3c0:	030a05b3          	mul	a1,s4,a6
     3c4:	c009f953          	fcvt.w.s	s2,fs3
     3c8:	01272833          	slt	a6,a4,s2
     3cc:	21f514d3          	fsgnjn.s	fs1,fa0,ft11
     3d0:	011bac33          	slt	s8,s7,a7
     3d4:	28a70d53          	fmin.s	fs10,fa4,fa0
     3d8:	01d69293          	slli	t0,a3,0x1d
     3dc:	f00c8353          	fmv.w.x	ft6,s9
     3e0:	a05d8b53          	fle.s	s6,fs11,ft5
     3e4:	00b25c93          	srli	s9,tp,0xb
     3e8:	5801f353          	fsqrt.s	ft6,ft3
     3ec:	a15b81d3          	fle.s	gp,fs7,fs5
     3f0:	f0010553          	fmv.w.x	fa0,sp
     3f4:	014dc033          	xor	zero,s11,s4
     3f8:	289f9953          	fmax.s	fs2,ft11,fs1
     3fc:	41e02593          	slti	a1,zero,1054
     400:	58087ad3          	fsqrt.s	fs5,fa6
     404:	01e4e933          	or	s2,s1,t5
     408:	0216c0b3          	div	ra,a3,ra
     40c:	a00f0153          	fle.s	sp,ft10,ft0
     410:	01ad1513          	slli	a0,s10,0x1a
     414:	01160033          	add	zero,a2,a7
     418:	002bdc33          	srl	s8,s7,sp
     41c:	0bf20e13          	addi	t3,tp,191 # 0xffffffff800000bf
     420:	21921153          	fsgnjn.s	ft2,ft4,fs9
     424:	01fa7cd3          	fadd.s	fs9,fs4,ft11
     428:	5800f553          	fsqrt.s	fa0,ft1
     42c:	010175d3          	fadd.s	fa1,ft2,fa6
     430:	01616033          	or	zero,sp,s6
     434:	2ce7ed13          	ori	s10,a5,718
     438:	12250b93          	addi	s7,a0,290
     43c:	03650eb3          	mul	t4,a0,s6
     440:	003aaa33          	slt	s4,s5,gp
     444:	037aa6b3          	mulhsu	a3,s5,s7
     448:	371aa813          	slti	a6,s5,881
     44c:	a1312053          	feq.s	zero,ft2,fs3
     450:	a1199d53          	flt.s	s10,fs3,fa7
     454:	01664a33          	xor	s4,a2,s6
     458:	02602e17          	auipc	t3,0x2602
     45c:	e0078c53          	fmv.x.w	s8,fa5
     460:	19baf053          	fdiv.s	ft0,fs5,fs11
     464:	5c118293          	addi	t0,gp,1473
     468:	019ad033          	srl	zero,s5,s9
     46c:	fbf9c313          	xori	t1,s3,-65
     470:	c010fed3          	fcvt.wu.s	t4,ft1
     474:	01d09713          	slli	a4,ra,0x1d
     478:	e00b1ad3          	fclass.s	s5,fs6
     47c:	c019f353          	fcvt.wu.s	t1,fs3
     480:	28a51a53          	fmax.s	fs4,fa0,fa0
     484:	40e7d433          	sra	s0,a5,a4
     488:	2dddbb93          	sltiu	s7,s11,733
     48c:	0225a433          	mulhsu	s0,a1,sp
     490:	e0080153          	fmv.x.w	sp,fa6
     494:	2123a153          	fsgnjx.s	ft2,ft7,fs2
     498:	01f25833          	srl	a6,tp,t6
     49c:	029d97b3          	mulh	a5,s11,s1
     4a0:	02c990b3          	mulh	ra,s3,a2
     4a4:	00d91233          	sll	tp,s2,a3
     4a8:	29ee8453          	fmin.s	fs0,ft9,ft10
     4ac:	01c9bc33          	sltu	s8,s3,t3
     4b0:	295399d3          	fmax.s	fs3,ft7,fs5
     4b4:	00187253          	fadd.s	ft4,fa6,ft1
     4b8:	a0d70bd3          	fle.s	s7,fa4,fa3
     4bc:	a1b10a53          	fle.s	s4,ft2,fs11
     4c0:	8ab6e017          	auipc	zero,0x8ab6e
     4c4:	00b716b3          	sll	a3,a4,a1
     4c8:	41685993          	srai	s3,a6,0x16
     4cc:	29ab9853          	fmax.s	fa6,fs7,fs10
     4d0:	288f1a53          	fmax.s	fs4,ft10,fs0
     4d4:	4bcd4293          	xori	t0,s10,1212
     4d8:	00388cb3          	add	s9,a7,gp
     4dc:	0301d033          	divu	zero,gp,a6
     4e0:	03de3033          	mulhu	zero,t3,t4
     4e4:	00ea5993          	srli	s3,s4,0xe
     4e8:	03f6c333          	div	t1,a3,t6
     4ec:	21f88f53          	fsgnj.s	ft10,fa7,ft11
     4f0:	019ad013          	srli	zero,s5,0x19
     4f4:	58007dd3          	fsqrt.s	fs11,ft0
     4f8:	de702997          	auipc	s3,0xde702
     4fc:	41dbd333          	sra	t1,s7,t4
     500:	201383d3          	fsgnj.s	ft7,ft7,ft1
     504:	204c04d3          	fsgnj.s	fs1,fs8,ft4
     508:	1b6fa393          	slti	t2,t6,438
     50c:	00000013          	addi	zero,zero,0
     510:	21098153          	fsgnj.s	ft2,fs3,fa6
     514:	e00c0dd3          	fmv.x.w	s11,fs8
     518:	023418b3          	mulh	a7,s0,gp
     51c:	1115ad93          	slti	s11,a1,273
     520:	4142d233          	sra	tp,t0,s4
     524:	b5916013          	ori	zero,sp,-1191
     528:	01f750b3          	srl	ra,a4,t6
     52c:	029a6833          	rem	a6,s4,s1
     530:	eb8e8213          	addi	tp,t4,-328
     534:	d01ff053          	fcvt.s.wu	ft0,t6
     538:	e7317013          	andi	zero,sp,-397
     53c:	a8e77193          	andi	gp,a4,-1394
     540:	00551013          	slli	zero,a0,0x5
     544:	02661433          	mulh	s0,a2,t1
     548:	01665b93          	srli	s7,a2,0x16
     54c:	21559653          	fsgnjn.s	fa2,fa1,fs5
     550:	5802fc53          	fsqrt.s	fs8,ft5
     554:	01b962b3          	or	t0,s2,s11
     558:	c0007053          	fcvt.w.s	zero,ft0
     55c:	e00a18d3          	fclass.s	a7,fs4
     560:	03723133          	mulhu	sp,tp,s7
     564:	0114fe53          	fadd.s	ft8,fs1,fa7
     568:	a02d1453          	flt.s	s0,fs10,ft2
     56c:	1af67213          	andi	tp,a2,431
     570:	19bffd53          	fdiv.s	fs10,ft11,fs11
     574:	0345c5b3          	div	a1,a1,s4
     578:	e00e9c53          	fclass.s	s8,ft9
     57c:	03fc3cb3          	mulhu	s9,s8,t6
     580:	20c10053          	fsgnj.s	ft0,ft2,fa2
     584:	546e8313          	addi	t1,t4,1350
     588:	03f7d6b3          	divu	a3,a5,t6
     58c:	0017e8b3          	or	a7,a5,ra
     590:	9dcc6c37          	lui	s8,0x9dcc6
     594:	08daf553          	fsub.s	fa0,fs5,fa3
     598:	7d0be737          	lui	a4,0x7d0be
     59c:	299a8d53          	fmin.s	fs10,fs5,fs9
     5a0:	0861f9d3          	fsub.s	fs3,ft3,ft6
     5a4:	00ce1293          	slli	t0,t3,0xc
     5a8:	d0017853          	fcvt.s.w	fa6,sp
     5ac:	00989033          	sll	zero,a7,s1
     5b0:	20001253          	fsgnjn.s	ft4,ft0,ft0
     5b4:	030e63b3          	rem	t2,t3,a6
     5b8:	03bdbbb3          	mulhu	s7,s11,s11
     5bc:	0373ee33          	rem	t3,t2,s7
     5c0:	d019f753          	fcvt.s.wu	fa4,s3
     5c4:	03ff5033          	divu	zero,t5,t6
     5c8:	01cafbd3          	fadd.s	fs7,fs5,ft8
     5cc:	017fd133          	srl	sp,t6,s7
     5d0:	28e49553          	fmax.s	fa0,fs1,fa4
     5d4:	182ef8d3          	fdiv.s	fa7,ft9,ft2
     5d8:	0397bd33          	mulhu	s10,a5,s9
     5dc:	03a6b033          	mulhu	zero,a3,s10
     5e0:	8842f013          	andi	zero,t0,-1916
     5e4:	f1aa7a13          	andi	s4,s4,-230
     5e8:	000db233          	sltu	tp,s11,zero
     5ec:	09a87dd3          	fsub.s	fs11,fa6,fs10
     5f0:	02dbab33          	mulhsu	s6,s7,a3
     5f4:	014a4bb3          	xor	s7,s4,s4
     5f8:	005e5393          	srli	t2,t3,0x5
     5fc:	028b1ab3          	mulh	s5,s6,s0
     600:	031c9733          	mulh	a4,s9,a7
     604:	00000013          	addi	zero,zero,0
     608:	32a66437          	lui	s0,0x32a66
     60c:	f00185d3          	fmv.w.x	fa1,gp
     610:	0812fbd3          	fsub.s	fs7,ft5,ft1
     614:	10447753          	fmul.s	fa4,fs0,ft4
     618:	29200ad3          	fmin.s	fs5,ft0,fs2
     61c:	008235b3          	sltu	a1,tp,s0
     620:	5805f053          	fsqrt.s	ft0,fa1
     624:	a1ab8cd3          	fle.s	s9,fs7,fs10
     628:	209d13d3          	fsgnjn.s	ft7,fs10,fs1
     62c:	c0007253          	fcvt.w.s	tp,ft0
     630:	dcacae93          	slti	t4,s9,-566
     634:	001713b3          	sll	t2,a4,ra
     638:	d0157753          	fcvt.s.wu	fa4,a0
     63c:	a02c9053          	flt.s	zero,fs9,ft2
     640:	580f7fd3          	fsqrt.s	ft11,ft10
     644:	00f35513          	srli	a0,t1,0xf
     648:	20c616d3          	fsgnjn.s	fa3,fa2,fa2
     64c:	083afed3          	fsub.s	ft9,fs5,ft3
     650:	d006f4d3          	fcvt.s.w	fs1,a3
     654:	65474013          	xori	zero,a4,1620
     658:	00d38eb3          	add	t4,t2,a3
     65c:	c01cfbd3          	fcvt.wu.s	s7,fs9
     660:	00609433          	sll	s0,ra,t1
     664:	e657a913          	slti	s2,a5,-411
     668:	a06420d3          	feq.s	ra,fs0,ft6
     66c:	01cc6ab3          	or	s5,s8,t3
     670:	01f240b3          	xor	ra,tp,t6
     674:	a10a9153          	flt.s	sp,fs5,fa6
     678:	03a248b3          	div	a7,tp,s10
     67c:	008a9a93          	slli	s5,s5,0x8
     680:	e0039353          	fclass.s	t1,ft7
     684:	4bd08a93          	addi	s5,ra,1213
     688:	a1531cd3          	flt.s	s9,ft6,fs5
     68c:	f00a03d3          	fmv.w.x	ft7,s4
     690:	004271d3          	fadd.s	ft3,ft4,ft4
     694:	409a0eb3          	sub	t4,s4,s1
     698:	19120613          	addi	a2,tp,401 # 0x191
     69c:	40705c13          	srai	s8,zero,0x7
     6a0:	00000013          	addi	zero,zero,0
     6a4:	e0001053          	fclass.s	zero,ft0
     6a8:	03b1b333          	mulhu	t1,gp,s11
     6ac:	00000013          	addi	zero,zero,0
     6b0:	d01d72d3          	fcvt.s.wu	ft5,s10
     6b4:	038eea33          	rem	s4,t4,s8
     6b8:	21b609d3          	fsgnj.s	fs3,fa2,fs11
     6bc:	e00291d3          	fclass.s	gp,ft5
     6c0:	01c77833          	and	a6,a4,t3
     6c4:	d0127cd3          	fcvt.s.wu	fs9,tp
     6c8:	411fa793          	slti	a5,t6,1041
     6cc:	024a48b3          	div	a7,s4,tp
     6d0:	19abf1d3          	fdiv.s	ft3,fs7,fs10
     6d4:	0832f053          	fsub.s	ft0,ft5,ft3
     6d8:	2076a753          	fsgnjx.s	fa4,fa3,ft7
     6dc:	28c69cd3          	fmax.s	fs9,fa3,fa2
     6e0:	296410d3          	fmax.s	ft1,fs0,fs6
     6e4:	28c59653          	fmax.s	fa2,fa1,fa2
     6e8:	d516a013          	slti	zero,a3,-687
     6ec:	e0030153          	fmv.x.w	sp,ft6
     6f0:	00000013          	addi	zero,zero,0
     6f4:	bc8dfd13          	andi	s10,s11,-1080
     6f8:	11297053          	fmul.s	ft0,fs2,fs2
     6fc:	20210f53          	fsgnj.s	ft10,ft2,ft2
     700:	58077353          	fsqrt.s	ft6,fa4
     704:	02b8db33          	divu	s6,a7,a1
     708:	01ab9033          	sll	zero,s7,s10
     70c:	028adc33          	divu	s8,s5,s0
     710:	d006f0d3          	fcvt.s.w	ft1,a3
     714:	40fdd893          	srai	a7,s11,0xf
     718:	02a7ceb3          	div	t4,a5,a0
     71c:	0971f753          	fsub.s	fa4,ft3,fs7
     720:	29ac82d3          	fmin.s	ft5,fs9,fs10
     724:	41748d33          	sub	s10,s1,s7
     728:	01511013          	slli	zero,sp,0x15
     72c:	c00df053          	fcvt.w.s	zero,fs11
     730:	d00b7c53          	fcvt.s.w	fs8,s6
     734:	645e4513          	xori	a0,t3,1605
     738:	d00afe53          	fcvt.s.w	ft8,s5
     73c:	10e90e93          	addi	t4,s2,270
     740:	6b643213          	sltiu	tp,s0,1718
     744:	41235013          	srai	zero,t1,0x12
     748:	01424033          	xor	zero,tp,s4
     74c:	bb69c793          	xori	a5,s3,-1098
     750:	d01af6d3          	fcvt.s.wu	fa3,s5
     754:	c01279d3          	fcvt.wu.s	s3,ft4
     758:	598d0093          	addi	ra,s10,1432
     75c:	a03c8453          	fle.s	s0,fs9,ft3
     760:	a07e2153          	feq.s	sp,ft8,ft7
     764:	01e80033          	add	zero,a6,t5
     768:	00a606b3          	add	a3,a2,a0
     76c:	20ee9153          	fsgnjn.s	ft2,ft9,fa4
     770:	d012f353          	fcvt.s.wu	ft6,t0
     774:	c5df6e17          	auipc	t3,0xc5df6
     778:	01fccd33          	xor	s10,s9,t6
     77c:	2624c093          	xori	ra,s1,610
     780:	10c37d53          	fmul.s	fs10,ft6,fa2
     784:	b614be17          	auipc	t3,0xb614b
     788:	08fd7f53          	fsub.s	ft10,fs10,fa5
     78c:	20ee1853          	fsgnjn.s	fa6,ft8,fa4
     790:	d00df9d3          	fcvt.s.w	fs3,s11
     794:	7d91e997          	auipc	s3,0x7d91e
     798:	25d91737          	lui	a4,0x25d91
     79c:	a138a7d3          	feq.s	a5,fa7,fs3
     7a0:	291c0e53          	fmin.s	ft8,fs8,fa7
     7a4:	f00d8dd3          	fmv.w.x	fs11,s11
     7a8:	a1b40bd3          	fle.s	s7,fs0,fs11
     7ac:	d8fa3cb7          	lui	s9,0xd8fa3
     7b0:	c00771d3          	fcvt.w.s	gp,fa4
     7b4:	4182d5b3          	sra	a1,t0,s8
     7b8:	43dda797          	auipc	a5,0x43dda
     7bc:	0c3b3993          	sltiu	s3,s6,195
     7c0:	017682b3          	add	t0,a3,s7
     7c4:	01649a13          	slli	s4,s1,0x16
     7c8:	00f665b3          	or	a1,a2,a5
     7cc:	18e870d3          	fdiv.s	ft1,fa6,fa4
     7d0:	0a8da613          	slti	a2,s11,168
     7d4:	58d3d517          	auipc	a0,0x58d3d
     7d8:	29c51dd3          	fmax.s	fs11,fa0,ft8
     7dc:	2154a253          	fsgnjx.s	ft4,fs1,fs5
     7e0:	01d05ab3          	srl	s5,zero,t4
     7e4:	00ead213          	srli	tp,s5,0xe
     7e8:	c0167ed3          	fcvt.wu.s	t4,fa2
     7ec:	00a56db3          	or	s11,a0,a0
     7f0:	8542c113          	xori	sp,t0,-1964
     7f4:	e0090b53          	fmv.x.w	s6,fs2
     7f8:	003d7ad3          	fadd.s	fs5,fs10,ft3
     7fc:	02002e33          	mulhsu	t3,zero,zero
     800:	032cd5b3          	divu	a1,s9,s2
     804:	41ebdd13          	srai	s10,s7,0x1e
     808:	ebd16c13          	ori	s8,sp,-323
     80c:	a08988d3          	fle.s	a7,fs3,fs0
     810:	c0017ed3          	fcvt.w.s	t4,ft2
     814:	00db5793          	srli	a5,s6,0xd
     818:	19e7f4d3          	fdiv.s	fs1,fa5,ft10
     81c:	e0038e53          	fmv.x.w	t3,ft7
     820:	181cb713          	sltiu	a4,s9,385
     824:	41aad033          	sra	zero,s5,s10
     828:	3820ce93          	xori	t4,ra,898
     82c:	01b46d33          	or	s10,s0,s11
     830:	00000013          	addi	zero,zero,0
     834:	ed9aa793          	slti	a5,s5,-295
     838:	030d1ab3          	mulh	s5,s10,a6
     83c:	01114833          	xor	a6,sp,a7
     840:	00aef7b3          	and	a5,t4,a0
     844:	03a41333          	mulh	t1,s0,s10
     848:	31750193          	addi	gp,a0,791 # 0x58d3daeb
     84c:	8d9cda37          	lui	s4,0x8d9cd
     850:	4034dc93          	srai	s9,s1,0x3
     854:	e0070c53          	fmv.x.w	s8,fa4
     858:	e00a05d3          	fmv.x.w	a1,fs4
     85c:	001996b3          	sll	a3,s3,ra
     860:	d01472d3          	fcvt.s.wu	ft5,s0
     864:	353efb13          	andi	s6,t4,851
     868:	03f46533          	rem	a0,s0,t6
     86c:	0138b233          	sltu	tp,a7,s3
     870:	005f39b3          	sltu	s3,t5,t0
     874:	a437c693          	xori	a3,a5,-1469
     878:	58077a53          	fsqrt.s	fs4,fa4
     87c:	d00bf853          	fcvt.s.w	fa6,s7
     880:	a1149053          	flt.s	zero,fs1,fa7
     884:	d7a19eb7          	lui	t4,0xd7a19
     888:	4cd90c13          	addi	s8,s2,1229
     88c:	0014c5b3          	xor	a1,s1,ra
     890:	a0459153          	flt.s	sp,fa1,ft4
     894:	d019fdd3          	fcvt.s.wu	fs11,s3
     898:	01895333          	srl	t1,s2,s8
     89c:	009d4633          	xor	a2,s10,s1
     8a0:	02bca8b3          	mulhsu	a7,s9,a1
     8a4:	00375893          	srli	a7,a4,0x3
     8a8:	00000013          	addi	zero,zero,0
     8ac:	03ef2133          	mulhsu	sp,t5,t5
     8b0:	180bf753          	fdiv.s	fa4,fs7,ft0
     8b4:	41e0d033          	sra	zero,ra,t5
     8b8:	00e0d713          	srli	a4,ra,0xe
     8bc:	031e8733          	mul	a4,t4,a7
     8c0:	208f8b53          	fsgnj.s	fs6,ft11,fs0
     8c4:	29c30053          	fmin.s	ft0,ft6,ft8
     8c8:	018dddb3          	srl	s11,s11,s8
     8cc:	18467bd3          	fdiv.s	fs7,fa2,ft4
     8d0:	e00d0753          	fmv.x.w	a4,fs10
     8d4:	00347153          	fadd.s	ft2,fs0,ft3
     8d8:	b4757393          	andi	t2,a0,-1209
     8dc:	11ed70d3          	fmul.s	ft1,fs10,ft10
     8e0:	00000013          	addi	zero,zero,0
     8e4:	41d5d993          	srai	s3,a1,0x1d
     8e8:	11ac1d97          	auipc	s11,0x11ac1
     8ec:	01165893          	srli	a7,a2,0x11
     8f0:	00b19d33          	sll	s10,gp,a1
     8f4:	40195013          	srai	zero,s2,0x1
     8f8:	a0e907d3          	fle.s	a5,fs2,fa4
     8fc:	59d72293          	slti	t0,a4,1437
     900:	00aa9ab3          	sll	s5,s5,a0
     904:	d01072d3          	fcvt.s.wu	ft5,zero
     908:	08b07053          	fsub.s	ft0,ft0,fa1
     90c:	02490533          	mul	a0,s2,tp
     910:	00000013          	addi	zero,zero,0
     914:	414550b3          	sra	ra,a0,s4
     918:	00b6dc13          	srli	s8,a3,0xb
     91c:	28f514d3          	fmax.s	fs1,fa0,fa5
     920:	a1ee2753          	feq.s	a4,ft8,ft10
     924:	4132dbb3          	sra	s7,t0,s3
     928:	2c02c993          	xori	s3,t0,704
     92c:	011cf8d3          	fadd.s	fa7,fs9,fa7
     930:	a1910c53          	fle.s	s8,ft2,fs9
     934:	d01d7453          	fcvt.s.wu	fs0,s10
     938:	01e76db3          	or	s11,a4,t5
     93c:	03df1133          	mulh	sp,t5,t4
     940:	10317153          	fmul.s	ft2,ft2,ft3
     944:	023d4233          	div	tp,s10,gp
     948:	022c1ab3          	mulh	s5,s8,sp
     94c:	10f37ad3          	fmul.s	fs5,ft6,fa5
     950:	025b81b3          	mul	gp,s7,t0
     954:	4122d833          	sra	a6,t0,s2
     958:	c0197653          	fcvt.wu.s	a2,fs2
     95c:	410951b3          	sra	gp,s2,a6
     960:	66e3b793          	sltiu	a5,t2,1646
     964:	01411833          	sll	a6,sp,s4
     968:	405d0533          	sub	a0,s10,t0
     96c:	00000013          	addi	zero,zero,0
     970:	29281e53          	fmax.s	ft8,fa6,fs2
     974:	d00a7ed3          	fcvt.s.w	ft9,s4
     978:	0315c433          	div	s0,a1,a7
     97c:	20aaac53          	fsgnjx.s	fs8,fs5,fa0
     980:	00f6d893          	srli	a7,a3,0xf
     984:	02b79133          	mulh	sp,a5,a1
     988:	401e5c33          	sra	s8,t3,ra
     98c:	2173add3          	fsgnjx.s	fs11,ft7,fs7
     990:	40b38033          	sub	zero,t2,a1
     994:	1935f6d3          	fdiv.s	fa3,fa1,fs3
     998:	c9eab037          	lui	zero,0xc9eab
     99c:	4c2ee513          	ori	a0,t4,1218
     9a0:	a05ca9d3          	feq.s	s3,fs9,ft5
     9a4:	40fed3b3          	sra	t2,t4,a5
     9a8:	023cb1b3          	mulhu	gp,s9,gp
     9ac:	29140553          	fmin.s	fa0,fs0,fa7
     9b0:	0036e9b3          	or	s3,a3,gp
     9b4:	0027ec33          	or	s8,a5,sp
     9b8:	016b33b3          	sltu	t2,s6,s6
     9bc:	febb6693          	ori	a3,s6,-21
     9c0:	087e7c53          	fsub.s	fs8,ft8,ft7
     9c4:	08c9f4d3          	fsub.s	fs1,fs3,fa2
     9c8:	40060133          	sub	sp,a2,zero
     9cc:	02f14d33          	div	s10,sp,a5
     9d0:	d00b7b53          	fcvt.s.w	fs6,s6
     9d4:	402f5033          	sra	zero,t5,sp
     9d8:	01499833          	sll	a6,s3,s4
     9dc:	a04f0ad3          	fle.s	s5,ft10,ft4
     9e0:	f00a0c53          	fmv.w.x	fs8,s4
     9e4:	20609753          	fsgnjn.s	fa4,ft1,ft6
     9e8:	20e2a053          	fsgnjx.s	ft0,ft5,fa4
     9ec:	20780a53          	fsgnj.s	fs4,fa6,ft7
     9f0:	d012f653          	fcvt.s.wu	fa2,t0
     9f4:	0382b5b3          	mulhu	a1,t0,s8
     9f8:	45d80313          	addi	t1,a6,1117
     9fc:	005cddb3          	srl	s11,s9,t0
     a00:	0128bbb3          	sltu	s7,a7,s2
     a04:	4024d0b3          	sra	ra,s1,sp
     a08:	00613db3          	sltu	s11,sp,t1
     a0c:	c015f353          	fcvt.wu.s	t1,fa1
     a10:	01eafbd3          	fadd.s	fs7,fs5,ft10
     a14:	022dc833          	div	a6,s11,sp
     a18:	017588b3          	add	a7,a1,s7
     a1c:	580ffcd3          	fsqrt.s	fs9,ft11
     a20:	d017f253          	fcvt.s.wu	ft4,a5
     a24:	0172deb3          	srl	t4,t0,s7
     a28:	a070a853          	feq.s	a6,ft1,ft7
     a2c:	a09b15d3          	flt.s	a1,fs6,fs1
     a30:	02d0ecb3          	rem	s9,ra,a3
     a34:	00f62433          	slt	s0,a2,a5
     a38:	03172033          	mulhsu	zero,a4,a7
     a3c:	407e5813          	srai	a6,t3,0x7
     a40:	c0077153          	fcvt.w.s	sp,fa4
     a44:	08befd53          	fsub.s	fs10,ft9,fa1
     a48:	00000013          	addi	zero,zero,0
     a4c:	18ddf953          	fdiv.s	fs2,fs11,fa3
     a50:	a0cf98d3          	flt.s	a7,ft11,fa2
     a54:	03e64b33          	div	s6,a2,t5
     a58:	21d00ad3          	fsgnj.s	fs5,ft0,ft9
     a5c:	28538b53          	fmin.s	fs6,ft7,ft5
     a60:	a1d12753          	feq.s	a4,ft2,ft9
     a64:	580a77d3          	fsqrt.s	fa5,fs4
     a68:	006b5033          	srl	zero,s6,t1
     a6c:	201715d3          	fsgnjn.s	fa1,fa4,ft1
     a70:	a06cad53          	feq.s	s10,fs9,ft6
     a74:	023ab833          	mulhu	a6,s5,gp
     a78:	9c7dae13          	slti	t3,s11,-1593
     a7c:	a075a853          	feq.s	a6,fa1,ft7
     a80:	0221b3b3          	mulhu	t2,gp,sp
     a84:	20c81c53          	fsgnjn.s	fs8,fa6,fa2
     a88:	21cba853          	fsgnjx.s	fa6,fs7,ft8
     a8c:	f0018953          	fmv.w.x	fs2,gp
     a90:	df5ca013          	slti	zero,s9,-523
     a94:	01f9f3b3          	and	t2,s3,t6
     a98:	01d79d33          	sll	s10,a5,t4
     a9c:	c0107153          	fcvt.wu.s	sp,ft0
     aa0:	01b90e33          	add	t3,s2,s11
     aa4:	417dd413          	srai	s0,s11,0x17
     aa8:	580efbd3          	fsqrt.s	fs7,ft9
     aac:	5808f7d3          	fsqrt.s	fa5,fa7
     ab0:	e0059453          	fclass.s	s0,fa1
     ab4:	0321c533          	div	a0,gp,s2
     ab8:	01ee1c13          	slli	s8,t3,0x1e
     abc:	c014f653          	fcvt.wu.s	a2,fs1
     ac0:	2159c893          	xori	a7,s3,533
     ac4:	eeafed13          	ori	s10,t6,-278
     ac8:	f0078dd3          	fmv.w.x	fs11,a5
     acc:	21fa0dd3          	fsgnj.s	fs11,fs4,ft11
     ad0:	00c62933          	slt	s2,a2,a2
     ad4:	fe3b0b93          	addi	s7,s6,-29
     ad8:	29ca91d3          	fmax.s	ft3,fs5,ft8
     adc:	516ff593          	andi	a1,t6,1302
     ae0:	632a11b7          	lui	gp,0x632a1
     ae4:	290997d3          	fmax.s	fa5,fs3,fa6
     ae8:	01af9813          	slli	a6,t6,0x1a
     aec:	c00675d3          	fcvt.w.s	a1,fa2
     af0:	41eddb93          	srai	s7,s11,0x1e
     af4:	b3263813          	sltiu	a6,a2,-1230
     af8:	7450fa13          	andi	s4,ra,1861
     afc:	a0b528d3          	feq.s	a7,fa0,fa1
     b00:	f0070853          	fmv.w.x	fa6,a4
     b04:	4170ca13          	xori	s4,ra,1047
     b08:	7108be93          	sltiu	t4,a7,1808
     b0c:	e0091353          	fclass.s	t1,fs2
     b10:	01ec0e33          	add	t3,s8,t5
     b14:	2150aad3          	fsgnjx.s	fs5,ft1,fs5
     b18:	41dd5e93          	srai	t4,s10,0x1d
     b1c:	208a00d3          	fsgnj.s	ft1,fs4,fs0
     b20:	015c9e93          	slli	t4,s9,0x15
     b24:	415a8cb3          	sub	s9,s5,s5
     b28:	00000013          	addi	zero,zero,0
     b2c:	9deda513          	slti	a0,s11,-1570
     b30:	017d4c33          	xor	s8,s10,s7
     b34:	00000013          	addi	zero,zero,0
     b38:	d490c313          	xori	t1,ra,-695
     b3c:	bf39e313          	ori	t1,s3,-1037
     b40:	183bf753          	fdiv.s	fa4,fs7,ft3
     b44:	0240ba33          	mulhu	s4,ra,tp
     b48:	414f55b3          	sra	a1,t5,s4
     b4c:	d01573d3          	fcvt.s.wu	ft7,a0
     b50:	0080fa33          	and	s4,ra,s0
     b54:	00000013          	addi	zero,zero,0
     b58:	02d7ab33          	mulhsu	s6,a5,a3
     b5c:	d0157c53          	fcvt.s.wu	fs8,a0
     b60:	6458fa13          	andi	s4,a7,1605
     b64:	01c11b93          	slli	s7,sp,0x1c
     b68:	2116a7d3          	fsgnjx.s	fa5,fa3,fa7
     b6c:	03ef5033          	divu	zero,t5,t5
     b70:	1141fed3          	fmul.s	ft9,ft3,fs4
     b74:	e0008153          	fmv.x.w	sp,ft1
     b78:	020cb333          	mulhu	t1,s9,zero
     b7c:	02ec59b3          	divu	s3,s8,a4
     b80:	1080fc53          	fmul.s	fs8,ft1,fs0
     b84:	00bcd013          	srli	zero,s9,0xb
     b88:	017ca033          	slt	zero,s9,s7
     b8c:	09a4f7d3          	fsub.s	fa5,fs1,fs10
     b90:	01b95793          	srli	a5,s2,0x1b
     b94:	f00e80d3          	fmv.w.x	ft1,t4
     b98:	287f0ed3          	fmin.s	ft9,ft10,ft7
     b9c:	190d7c53          	fdiv.s	fs8,fs10,fa6
     ba0:	00015713          	srli	a4,sp,0x0
     ba4:	02e6c733          	div	a4,a3,a4
     ba8:	01829213          	slli	tp,t0,0x18
     bac:	e0c7b913          	sltiu	s2,a5,-500
     bb0:	3af4a693          	slti	a3,s1,943
     bb4:	a06c2053          	feq.s	zero,fs8,ft6
     bb8:	03ce5bb3          	divu	s7,t3,t3
     bbc:	61e94193          	xori	gp,s2,1566
     bc0:	a152aa53          	feq.s	s4,ft5,fs5
     bc4:	a1e1a753          	feq.s	a4,ft3,ft10
     bc8:	0264b2b3          	mulhu	t0,s1,t1
     bcc:	d01b71d3          	fcvt.s.wu	ft3,s6
     bd0:	00087a33          	and	s4,a6,zero
     bd4:	00e2ed33          	or	s10,t0,a4
     bd8:	000ba7b3          	slt	a5,s7,zero
     bdc:	c00f7bd3          	fcvt.w.s	s7,ft10
     be0:	00511d33          	sll	s10,sp,t0
     be4:	6ade8013          	addi	zero,t4,1709 # 0xffffffffd7a196ad
     be8:	0356a9b3          	mulhsu	s3,a3,s5
     bec:	a18919d3          	flt.s	s3,fs2,fs8
     bf0:	d006fe53          	fcvt.s.w	ft8,a3
     bf4:	a5ae3793          	sltiu	a5,t3,-1446
     bf8:	02a11e33          	mulh	t3,sp,a0
     bfc:	a0b125d3          	feq.s	a1,ft2,fa1
     c00:	20c901d3          	fsgnj.s	ft3,fs2,fa2
     c04:	016e5613          	srli	a2,t3,0x16
     c08:	10c270d3          	fmul.s	ft1,ft4,fa2
     c0c:	02e423b3          	mulhsu	t2,s0,a4
     c10:	4c3a6593          	ori	a1,s4,1219
     c14:	a15d0053          	fle.s	zero,fs10,fs5
     c18:	1122ff53          	fmul.s	ft10,ft5,fs2
     c1c:	580cfa53          	fsqrt.s	fs4,fs9
     c20:	da69fb13          	andi	s6,s3,-602
     c24:	03ba0b33          	mul	s6,s4,s11
     c28:	03158833          	mul	a6,a1,a7
     c2c:	000d5033          	srl	zero,s10,zero
     c30:	03bad6b3          	divu	a3,s5,s11
     c34:	2106abd3          	fsgnjx.s	fs7,fa3,fa6
     c38:	00fe3933          	sltu	s2,t3,a5
     c3c:	00fab3b3          	sltu	t2,s5,a5
     c40:	01629513          	slli	a0,t0,0x16
     c44:	200fa4d3          	fsgnjx.s	fs1,ft11,ft0
     c48:	e00393d3          	fclass.s	t2,ft7
     c4c:	0051fdd3          	fadd.s	fs11,ft3,ft5
     c50:	40ce02b3          	sub	t0,t3,a2
     c54:	f8ff3613          	sltiu	a2,t5,-113
     c58:	21142ad3          	fsgnjx.s	fs5,fs0,fa7
     c5c:	01854033          	xor	zero,a0,s8
     c60:	5801f653          	fsqrt.s	fa2,ft3
     c64:	e00f83d3          	fmv.x.w	t2,ft11
     c68:	a1ab90d3          	flt.s	ra,fs7,fs10
     c6c:	291b1753          	fmax.s	fa4,fs6,fa7
     c70:	c00dfbd3          	fcvt.w.s	s7,fs11
     c74:	00ff5433          	srl	s0,t5,a5
     c78:	e0071ad3          	fclass.s	s5,fa4
     c7c:	00ed4833          	xor	a6,s10,a4
     c80:	003547b3          	xor	a5,a0,gp
     c84:	a1b99853          	flt.s	a6,fs3,fs11
     c88:	012a0133          	add	sp,s4,s2
     c8c:	85743993          	sltiu	s3,s0,-1961
     c90:	e0028dd3          	fmv.x.w	s11,ft5
     c94:	0139ebb3          	or	s7,s3,s3
     c98:	580a7653          	fsqrt.s	fa2,fs4
     c9c:	01ed78d3          	fadd.s	fa7,fs10,ft10
     ca0:	006d9a13          	slli	s4,s11,0x6
     ca4:	02a41db3          	mulh	s11,s0,a0
     ca8:	d00c7453          	fcvt.s.w	fs0,s8
     cac:	0835fbd3          	fsub.s	fs7,fa1,ft3
     cb0:	21d81dd3          	fsgnjn.s	fs11,fa6,ft9
     cb4:	05b9ec93          	ori	s9,s3,91
     cb8:	03744333          	div	t1,s0,s7
     cbc:	00e55113          	srli	sp,a0,0xe
     cc0:	00ba1e33          	sll	t3,s4,a1
     cc4:	bd8a6413          	ori	s0,s4,-1064
     cc8:	009fab33          	slt	s6,t6,s1
     ccc:	bcb1e213          	ori	tp,gp,-1077
     cd0:	00d03e33          	sltu	t3,zero,a3
     cd4:	00f2b1b3          	sltu	gp,t0,a5
     cd8:	0894ff53          	fsub.s	ft10,fs1,fs1
     cdc:	03b7d133          	divu	sp,a5,s11
     ce0:	00d4fcb3          	and	s9,s1,a3
     ce4:	01501b33          	sll	s6,zero,s5
     ce8:	2768f793          	andi	a5,a7,630
     cec:	d006f353          	fcvt.s.w	ft6,a3
     cf0:	e00f05d3          	fmv.x.w	a1,ft10
     cf4:	dc7bb417          	auipc	s0,0xdc7bb
     cf8:	03dc4c33          	div	s8,s8,t4
     cfc:	022a58b3          	divu	a7,s4,sp
     d00:	e00a15d3          	fclass.s	a1,fs4
     d04:	02255533          	divu	a0,a0,sp
     d08:	21f001d3          	fsgnj.s	ft3,ft0,ft11
     d0c:	0127edb3          	or	s11,a5,s2
     d10:	1942ffd3          	fdiv.s	ft11,ft5,fs4
     d14:	03e0d133          	divu	sp,ra,t5
     d18:	d010f8d3          	fcvt.s.wu	fa7,ra
     d1c:	217bafd3          	fsgnjx.s	ft11,fs7,fs7
     d20:	02fce533          	rem	a0,s9,a5
     d24:	dcd7a893          	slti	a7,a5,-563
     d28:	008e5433          	srl	s0,t3,s0
     d2c:	e00c9c53          	fclass.s	s8,fs9
     d30:	40b18cb3          	sub	s9,gp,a1
     d34:	21972dd3          	fsgnjx.s	fs11,fa4,fs9
     d38:	20680753          	fsgnj.s	fa4,fa6,ft6
     d3c:	b874c893          	xori	a7,s1,-1145
     d40:	e00a8753          	fmv.x.w	a4,fs5
     d44:	a169a5d3          	feq.s	a1,fs3,fs6
     d48:	0080a133          	slt	sp,ra,s0
     d4c:	f00f8c53          	fmv.w.x	fs8,t6
     d50:	01786833          	or	a6,a6,s7
     d54:	00fcfcd3          	fadd.s	fs9,fs9,fa5
     d58:	00000013          	addi	zero,zero,0
     d5c:	01b8e233          	or	tp,a7,s11
     d60:	1118f753          	fmul.s	fa4,fa7,fa7
     d64:	a16902d3          	fle.s	t0,fs2,fs6
     d68:	a0c21053          	flt.s	zero,ft4,fa2
     d6c:	201622d3          	fsgnjx.s	ft5,fa2,ft1
     d70:	01e65a33          	srl	s4,a2,t5
     d74:	e00d97d3          	fclass.s	a5,fs11
     d78:	190fff53          	fdiv.s	ft10,ft11,fa6
     d7c:	f0030ad3          	fmv.w.x	fs5,t1
     d80:	024549b3          	div	s3,a0,tp
     d84:	085dfc53          	fsub.s	fs8,fs11,ft5
     d88:	03558533          	mul	a0,a1,s5
     d8c:	02ddad33          	mulhsu	s10,s11,a3
     d90:	02a32a33          	mulhsu	s4,t1,a0
     d94:	00bf6033          	or	zero,t5,a1
     d98:	b44df693          	andi	a3,s11,-1212
     d9c:	c018f053          	fcvt.wu.s	zero,fa7
     da0:	032c2233          	mulhsu	tp,s8,s2
     da4:	f00083d3          	fmv.w.x	ft7,ra
     da8:	409701b3          	sub	gp,a4,s1
     dac:	01324633          	xor	a2,tp,s3
     db0:	29121b53          	fmax.s	fs6,ft4,fa7
     db4:	a42ce593          	ori	a1,s9,-1470
     db8:	00ab4033          	xor	zero,s6,a0
     dbc:	580dfad3          	fsqrt.s	fs5,fs11
     dc0:	29098cd3          	fmin.s	fs9,fs3,fa6
     dc4:	e00c9053          	fclass.s	zero,fs9
     dc8:	01d85033          	srl	zero,a6,t4
     dcc:	294b0c53          	fmin.s	fs8,fs6,fs4
     dd0:	20399053          	fsgnjn.s	ft0,fs3,ft3
     dd4:	cb438793          	addi	a5,t2,-844
     dd8:	216e18d3          	fsgnjn.s	fa7,ft8,fs6
     ddc:	03f0e1b3          	rem	gp,ra,t6
     de0:	0969ff53          	fsub.s	ft10,fs3,fs6
     de4:	0394e6b3          	rem	a3,s1,s9
     de8:	408b08b3          	sub	a7,s6,s0
     dec:	206ba1d3          	fsgnjx.s	ft3,fs7,ft6
     df0:	5805f253          	fsqrt.s	ft4,fa1
     df4:	40350033          	sub	zero,a0,gp
     df8:	216c2e53          	fsgnjx.s	ft8,fs8,fs6
     dfc:	009d9013          	slli	zero,s11,0x9
     e00:	00000013          	addi	zero,zero,0
     e04:	aefb8217          	auipc	tp,0xaefb8
     e08:	21bd08d3          	fsgnj.s	fa7,fs10,fs11
     e0c:	00a8d233          	srl	tp,a7,a0
     e10:	d0077bd3          	fcvt.s.w	fs7,a4
     e14:	2020a1d3          	fsgnjx.s	ft3,ft1,ft2
     e18:	0095c0b3          	xor	ra,a1,s1
     e1c:	d0057653          	fcvt.s.w	fa2,a0
     e20:	005daab3          	slt	s5,s11,t0
     e24:	00d529b3          	slt	s3,a0,a3
     e28:	027369b3          	rem	s3,t1,t2
     e2c:	104870d3          	fmul.s	ft1,fa6,ft4
     e30:	0720ac13          	slti	s8,ra,114
     e34:	0150e733          	or	a4,ra,s5
     e38:	f0068d53          	fmv.w.x	fs10,a3
     e3c:	1983f0d3          	fdiv.s	ft1,ft7,fs8
     e40:	5804fbd3          	fsqrt.s	fs7,fs1
     e44:	4ed93a13          	sltiu	s4,s2,1261
     e48:	c018f153          	fcvt.wu.s	sp,fa7
     e4c:	c0057053          	fcvt.w.s	zero,fa0
     e50:	86dfc393          	xori	t2,t6,-1939
     e54:	6f16ac13          	slti	s8,a3,1777
     e58:	f00f0253          	fmv.w.x	ft4,t5
     e5c:	018ed3b3          	srl	t2,t4,s8
     e60:	a0038253          	fle.s	tp,ft7,ft0
     e64:	0363d3b3          	divu	t2,t2,s6
     e68:	010fd8b3          	srl	a7,t6,a6
     e6c:	c8b9b293          	sltiu	t0,s3,-885
     e70:	011cd893          	srli	a7,s9,0x11
     e74:	4138d833          	sra	a6,a7,s3
     e78:	d01c76d3          	fcvt.s.wu	fa3,s8
     e7c:	28429f53          	fmax.s	ft10,ft5,ft4
     e80:	028492b3          	mulh	t0,s1,s0
     e84:	02fb2db3          	mulhsu	s11,s6,a5
     e88:	03dae2b3          	rem	t0,s5,t4
     e8c:	00726933          	or	s2,tp,t2
     e90:	21969cd3          	fsgnjn.s	fs9,fa3,fs9
     e94:	00000013          	addi	zero,zero,0
     e98:	c00ef053          	fcvt.w.s	zero,ft9
     e9c:	00000013          	addi	zero,zero,0
     ea0:	00fb75d3          	fadd.s	fa1,fs6,fa5
     ea4:	01ee5093          	srli	ra,t3,0x1e
     ea8:	29e19253          	fmax.s	ft4,ft3,ft10
     eac:	03370ab3          	mul	s5,a4,s3
     eb0:	01b2e9b3          	or	s3,t0,s11
     eb4:	294b92d3          	fmax.s	ft5,fs7,fs4
     eb8:	43100d13          	addi	s10,zero,1073
     ebc:	203d9ed3          	fsgnjn.s	ft9,fs11,ft3
     ec0:	209f2453          	fsgnjx.s	fs0,ft10,fs1
     ec4:	00000013          	addi	zero,zero,0
     ec8:	015747b3          	xor	a5,a4,s5
     ecc:	31ce6617          	auipc	a2,0x31ce6
     ed0:	01671033          	sll	zero,a4,s6
     ed4:	e5cc8393          	addi	t2,s9,-420 # 0xffffffffd8fa2e5c
     ed8:	d01970d3          	fcvt.s.wu	ft1,s2
     edc:	d0197cd3          	fcvt.s.wu	fs9,s2
     ee0:	f7b57937          	lui	s2,0xf7b57
     ee4:	68068613          	addi	a2,a3,1664 # 0xffffffffcdc5590c
     ee8:	018c79b3          	and	s3,s8,s8
     eec:	c00972d3          	fcvt.w.s	t0,fs2
     ef0:	00000013          	addi	zero,zero,0
     ef4:	609d7193          	andi	gp,s10,1545
     ef8:	01ad93b3          	sll	t2,s11,s10
     efc:	a1268953          	fle.s	s2,fa3,fs2
     f00:	00eb68b3          	or	a7,s6,a4
     f04:	002e66b3          	or	a3,t3,sp
     f08:	4045da13          	srai	s4,a1,0x4
     f0c:	d0167553          	fcvt.s.wu	fa0,a2
     f10:	00119013          	slli	zero,gp,0x1
     f14:	a064abd3          	feq.s	s7,fs1,ft6
     f18:	d0107b53          	fcvt.s.wu	fs6,zero
     f1c:	1034fd53          	fmul.s	fs10,fs1,ft3
     f20:	ef7c3237          	lui	tp,0xef7c3
     f24:	41df8b33          	sub	s6,t6,t4
     f28:	00c472b3          	and	t0,s0,a2
     f2c:	0290ed33          	rem	s10,ra,s1
     f30:	20659353          	fsgnjn.s	ft6,fa1,ft6
     f34:	00509e13          	slli	t3,ra,0x5
     f38:	03795633          	divu	a2,s2,s7
     f3c:	a1af1553          	flt.s	a0,ft10,fs10
     f40:	05c8f093          	andi	ra,a7,92
     f44:	2ffcbd17          	auipc	s10,0x2ffcb
     f48:	adf46d13          	ori	s10,s0,-1313
     f4c:	000d9293          	slli	t0,s11,0x0
     f50:	a0cb2053          	feq.s	zero,fs6,fa2
     f54:	97885117          	auipc	sp,0x97885
     f58:	09cdd5b7          	lui	a1,0x9cdd
     f5c:	c019f3d3          	fcvt.wu.s	t2,fs3
     f60:	58004893          	xori	a7,zero,1408
     f64:	571e2213          	slti	tp,t3,1393
     f68:	fb8ac313          	xori	t1,s5,-72
     f6c:	292894d3          	fmax.s	fs1,fa7,fs2
     f70:	19bc7e53          	fdiv.s	ft8,fs8,fs11
     f74:	27566c13          	ori	s8,a2,629
     f78:	4006deb3          	sra	t4,a3,zero
     f7c:	c00ff853          	fcvt.w.s	a6,ft11
     f80:	01c09713          	slli	a4,ra,0x1c
     f84:	40025033          	sra	zero,tp,zero
     f88:	0201d033          	divu	zero,gp,zero
     f8c:	29458dd3          	fmin.s	fs11,fa1,fs4
     f90:	009965b3          	or	a1,s2,s1
     f94:	c5a06013          	ori	zero,zero,-934
     f98:	d01dfcd3          	fcvt.s.wu	fs9,s11
     f9c:	00eb3333          	sltu	t1,s6,a4
     fa0:	a098a593          	slti	a1,a7,-1527
     fa4:	00b001b3          	add	gp,zero,a1
     fa8:	02dbb0b3          	mulhu	ra,s7,a3
     fac:	198c7fd3          	fdiv.s	ft11,fs8,fs8
     fb0:	d10df393          	andi	t2,s11,-752
     fb4:	580dfc53          	fsqrt.s	fs8,fs11
     fb8:	c2ed6c93          	ori	s9,s10,-978
     fbc:	00000013          	addi	zero,zero,0
     fc0:	019ecbb3          	xor	s7,t4,s9
     fc4:	bb7ec513          	xori	a0,t4,-1097
     fc8:	18197653          	fdiv.s	fa2,fs2,ft1
     fcc:	297b05d3          	fmin.s	fa1,fs6,fs7
     fd0:	02bea2b3          	mulhsu	t0,t4,a1
     fd4:	028c9833          	mulh	a6,s9,s0
     fd8:	09257cd3          	fsub.s	fs9,fa0,fs2
     fdc:	00000013          	addi	zero,zero,0
     fe0:	09057753          	fsub.s	fa4,fa0,fa6
     fe4:	00678533          	add	a0,a5,t1
     fe8:	55c9f037          	lui	zero,0x55c9f
     fec:	0fb32e13          	slti	t3,t1,251
     ff0:	40d25d93          	srai	s11,tp,0xd
     ff4:	21d32153          	fsgnjx.s	ft2,ft6,ft9
     ff8:	580cf953          	fsqrt.s	fs2,fs9
     ffc:	11a7f053          	fmul.s	ft0,fa5,fs10
    1000:	40bf8b33          	sub	s6,t6,a1
    1004:	d014f2d3          	fcvt.s.wu	ft5,s1
    1008:	0172eb33          	or	s6,t0,s7
    100c:	009a9013          	slli	zero,s5,0x9
    1010:	af59ce13          	xori	t3,s3,-1291
    1014:	00000013          	addi	zero,zero,0
    1018:	bdd3f813          	andi	a6,t2,-1059
    101c:	01c6b333          	sltu	t1,a3,t3
    1020:	1081f053          	fmul.s	ft0,ft3,fs0
    1024:	e535b013          	sltiu	zero,a1,-429
    1028:	10827053          	fmul.s	ft0,ft4,fs0
    102c:	20290853          	fsgnj.s	fa6,fs2,ft2
    1030:	d473fb13          	andi	s6,t2,-697
    1034:	0ef0cd93          	xori	s11,ra,239
    1038:	416c0233          	sub	tp,s8,s6
    103c:	29ea9453          	fmax.s	fs0,fs5,ft10
    1040:	7936a193          	slti	gp,a3,1939
    1044:	e00988d3          	fmv.x.w	a7,fs3
    1048:	00c44833          	xor	a6,s0,a2
    104c:	f0068f53          	fmv.w.x	ft10,a3
    1050:	01948ab3          	add	s5,s1,s9
    1054:	a1c59d53          	flt.s	s10,fa1,ft8
    1058:	852ca393          	slti	t2,s9,-1966
    105c:	213c96d3          	fsgnjn.s	fa3,fs9,fs3
    1060:	1872f953          	fdiv.s	fs2,ft5,ft7
    1064:	01d3f853          	fadd.s	fa6,ft7,ft9
    1068:	207811d3          	fsgnjn.s	ft3,fa6,ft7
    106c:	03e9ddb3          	divu	s11,s3,t5
    1070:	018478b3          	and	a7,s0,s8
    1074:	00000013          	addi	zero,zero,0
    1078:	6a898993          	addi	s3,s3,1704 # 0x7d91ee3c
    107c:	f00981d3          	fmv.w.x	ft3,s3
    1080:	024cbc33          	mulhu	s8,s9,tp
    1084:	21662a53          	fsgnjx.s	fs4,fa2,fs6
    1088:	28d73a93          	sltiu	s5,a4,653
    108c:	2122ac53          	fsgnjx.s	fs8,ft5,fs2
    1090:	d01cf053          	fcvt.s.wu	ft0,s9
    1094:	011eb333          	sltu	t1,t4,a7
    1098:	74f0ee93          	ori	t4,ra,1871
    109c:	033ae033          	rem	zero,s5,s3
    10a0:	200b0053          	fsgnj.s	ft0,fs6,ft0
    10a4:	41cc5db3          	sra	s11,s8,t3
    10a8:	405a5113          	srai	sp,s4,0x5
    10ac:	4b14f017          	auipc	zero,0x4b14f
    10b0:	5796b093          	sltiu	ra,a3,1401
    10b4:	0394cdb3          	div	s11,s1,s9
    10b8:	400e5e93          	srai	t4,t3,0x0
    10bc:	007fd7b3          	srl	a5,t6,t2
    10c0:	088875d3          	fsub.s	fa1,fa6,fs0
    10c4:	516c0013          	addi	zero,s8,1302 # 0xffffffff9dcc6516
    10c8:	002e2a33          	slt	s4,t3,sp
    10cc:	00df1233          	sll	tp,t5,a3
    10d0:	00a8e033          	or	zero,a7,a0
    10d4:	0807f4d3          	fsub.s	fs1,fa5,ft0
    10d8:	e0021753          	fclass.s	a4,ft4
    10dc:	21a320d3          	fsgnjx.s	ft1,ft6,fs10
    10e0:	e00a9653          	fclass.s	a2,fs5
    10e4:	a1c423d3          	feq.s	t2,fs0,ft8
    10e8:	01c0d693          	srli	a3,ra,0x1c
    10ec:	02aa2d33          	mulhsu	s10,s4,a0
    10f0:	008e59b3          	srl	s3,t3,s0
    10f4:	02015033          	divu	zero,sp,zero
    10f8:	537d3593          	sltiu	a1,s10,1335
    10fc:	f00d85d3          	fmv.w.x	fa1,s11
    1100:	e00e9ed3          	fclass.s	t4,ft9
    1104:	e00f11d3          	fclass.s	gp,ft10
    1108:	283801d3          	fmin.s	ft3,fa6,ft3
    110c:	d01976d3          	fcvt.s.wu	fa3,s2
    1110:	f00983d3          	fmv.w.x	ft7,s3
    1114:	417d5a93          	srai	s5,s10,0x17
    1118:	0272c5b3          	div	a1,t0,t2
    111c:	a9430993          	addi	s3,t1,-1388
    1120:	21678ad3          	fsgnj.s	fs5,fa5,fs6
    1124:	a06fa053          	feq.s	zero,ft11,ft6
    1128:	e0089953          	fclass.s	s2,fa7
    112c:	a0d68553          	fle.s	a0,fa3,fa3
    1130:	f00788d3          	fmv.w.x	fa7,a5
    1134:	01ef48b3          	xor	a7,t5,t5
    1138:	02fa86b3          	mul	a3,s5,a5
    113c:	19def753          	fdiv.s	fa4,ft9,ft9
    1140:	8fba2937          	lui	s2,0x8fba2
    1144:	0043c0b3          	xor	ra,t2,tp
    1148:	c01b7d53          	fcvt.wu.s	s10,fs6
    114c:	020b6033          	rem	zero,s6,zero
    1150:	28a00053          	fmin.s	ft0,ft0,fa0
    1154:	6241b813          	sltiu	a6,gp,1572
    1158:	00000013          	addi	zero,zero,0
    115c:	01a80b33          	add	s6,a6,s10
    1160:	b5296693          	ori	a3,s2,-1198
    1164:	01ed8433          	add	s0,s11,t5
    1168:	00375913          	srli	s2,a4,0x3
    116c:	0311bbb3          	mulhu	s7,gp,a7
    1170:	402bdb33          	sra	s6,s7,sp
    1174:	00caf0d3          	fadd.s	ft1,fs5,fa2
    1178:	0154d1b3          	srl	gp,s1,s5
    117c:	014ea9b3          	slt	s3,t4,s4
    1180:	08b472d3          	fsub.s	ft5,fs0,fa1
    1184:	0006d093          	srli	ra,a3,0x0
    1188:	18a17a53          	fdiv.s	fs4,ft2,fa0
    118c:	0176d8b3          	srl	a7,a3,s7
    1190:	02cd4db3          	div	s11,s10,a2
    1194:	d029e393          	ori	t2,s3,-766
    1198:	a13a9053          	flt.s	zero,fs5,fs3
    119c:	c001f6d3          	fcvt.w.s	a3,ft3
    11a0:	a074ae53          	feq.s	t3,fs1,ft7
    11a4:	01b068b3          	or	a7,zero,s11
    11a8:	08547653          	fsub.s	fa2,fs0,ft5
    11ac:	01a49393          	slli	t2,s1,0x1a
    11b0:	03d0c833          	div	a6,ra,t4
    11b4:	c01671d3          	fcvt.wu.s	gp,fa2
    11b8:	102ff4d3          	fmul.s	fs1,ft11,ft2
    11bc:	f00d8553          	fmv.w.x	fa0,s11
    11c0:	01905813          	srli	a6,zero,0x19
    11c4:	f00c0f53          	fmv.w.x	ft10,s8
    11c8:	d2de6437          	lui	s0,0xd2de6
    11cc:	f00587d3          	fmv.w.x	fa5,a1
    11d0:	005e3733          	sltu	a4,t3,t0
    11d4:	a1201953          	flt.s	s2,ft0,fs2
    11d8:	e00f8ad3          	fmv.x.w	s5,ft11
    11dc:	e00701d3          	fmv.x.w	gp,fa4
    11e0:	41135213          	srai	tp,t1,0x11
    11e4:	00da19b3          	sll	s3,s4,a3
    11e8:	013f0233          	add	tp,t5,s3
    11ec:	019c9933          	sll	s2,s9,s9
    11f0:	7c9de513          	ori	a0,s11,1993
    11f4:	e00f90d3          	fclass.s	ra,ft11
    11f8:	02b69233          	mulh	tp,a3,a1
    11fc:	21cda9d3          	fsgnjx.s	fs3,fs11,ft8
    1200:	c01e75d3          	fcvt.wu.s	a1,ft8
    1204:	20952f53          	fsgnjx.s	ft10,fa0,fs1
    1208:	03e3d433          	divu	s0,t2,t5
    120c:	00d7beb3          	sltu	t4,a5,a3
    1210:	41945933          	sra	s2,s0,s9
    1214:	032bed33          	rem	s10,s7,s2
    1218:	291301d3          	fmin.s	ft3,ft6,fa7
    121c:	c0177cd3          	fcvt.wu.s	s9,fa4
    1220:	d009ff53          	fcvt.s.w	ft10,s3
    1224:	01702533          	slt	a0,zero,s7
    1228:	001a3933          	sltu	s2,s4,ra
    122c:	a46e3293          	sltiu	t0,t3,-1466
    1230:	29b18fd3          	fmin.s	ft11,ft3,fs11
    1234:	4050d9b3          	sra	s3,ra,t0
    1238:	01e69993          	slli	s3,a3,0x1e
    123c:	ced3ba93          	sltiu	s5,t2,-787
    1240:	a03aa053          	feq.s	zero,fs5,ft3
    1244:	29e48e53          	fmin.s	ft8,fs1,ft10
    1248:	173ab013          	sltiu	zero,s5,371
    124c:	29c28553          	fmin.s	fa0,ft5,ft8
    1250:	413ed913          	srai	s2,t4,0x13
    1254:	28c582d3          	fmin.s	ft5,fa1,fa2
    1258:	f00201d3          	fmv.w.x	ft3,tp
    125c:	03efc633          	div	a2,t6,t5
    1260:	29ea0a93          	addi	s5,s4,670 # 0xffffffff8d9cd29e
    1264:	00109c93          	slli	s9,ra,0x1
    1268:	013ad913          	srli	s2,s5,0x13
    126c:	014d9833          	sll	a6,s11,s4
    1270:	033e4033          	div	zero,t3,s3
    1274:	f00d0753          	fmv.w.x	fa4,s10
    1278:	4ae36e93          	ori	t4,t1,1198
    127c:	a0289cd3          	flt.s	s9,fa7,ft2
    1280:	00057033          	and	zero,a0,zero
    1284:	41dd51b3          	sra	gp,s10,t4
    1288:	c009f153          	fcvt.w.s	sp,fs3
    128c:	ceeef813          	andi	a6,t4,-786
    1290:	00ef7733          	and	a4,t5,a4
    1294:	663d3e13          	sltiu	t3,s10,1635
    1298:	29a41cd3          	fmax.s	fs9,fs0,fs10
    129c:	a0dd81d3          	fle.s	gp,fs11,fa3
    12a0:	106f7dd3          	fmul.s	fs11,ft10,ft6
    12a4:	08d9f253          	fsub.s	ft4,fs3,fa3
    12a8:	20ca11d3          	fsgnjn.s	ft3,fs4,fa2
    12ac:	a0b3a053          	feq.s	zero,ft7,fa1
    12b0:	03835333          	divu	t1,t1,s8
    12b4:	023ac5b3          	div	a1,s5,gp
    12b8:	0239ddb3          	divu	s11,s3,gp
    12bc:	21058953          	fsgnj.s	fs2,fa1,fa6
    12c0:	03642eb3          	mulhsu	t4,s0,s6
    12c4:	00a6da13          	srli	s4,a3,0xa
    12c8:	280c8453          	fmin.s	fs0,fs9,ft0
    12cc:	f064cab7          	lui	s5,0xf064c
    12d0:	01e817b3          	sll	a5,a6,t5
    12d4:	2e253013          	sltiu	zero,a0,738
    12d8:	008e1013          	slli	zero,t3,0x8
    12dc:	004b8333          	add	t1,s7,tp
    12e0:	18cb71d3          	fdiv.s	ft3,fs6,fa2
    12e4:	21599c53          	fsgnjn.s	fs8,fs3,fs5
    12e8:	2119afd3          	fsgnjx.s	ft11,fs3,fa7
    12ec:	01bfe233          	or	tp,t6,s11
    12f0:	a1b38053          	fle.s	zero,ft7,fs11
    12f4:	a0fa8753          	fle.s	a4,fs5,fa5
    12f8:	a0188d53          	fle.s	s10,fa7,ft1
    12fc:	181cfa53          	fdiv.s	fs4,fs9,ft1
    1300:	03144733          	div	a4,s0,a7
    1304:	a1a6a153          	feq.s	sp,fa3,fs10
    1308:	00f10bb3          	add	s7,sp,a5
    130c:	0100e1b3          	or	gp,ra,a6
    1310:	00f37353          	fadd.s	ft6,ft6,fa5
    1314:	02cf0eb3          	mul	t4,t5,a2
    1318:	0334e233          	rem	tp,s1,s3
    131c:	d006f7d3          	fcvt.s.w	fa5,a3
    1320:	033091b3          	mulh	gp,ra,s3
    1324:	e7734317          	auipc	t1,0xe7734
    1328:	a0ea9cd3          	flt.s	s9,fs5,fa4
    132c:	986f8113          	addi	sp,t6,-1658
    1330:	a0008553          	fle.s	a0,ft1,ft0
    1334:	a3e20d37          	lui	s10,0xa3e20
    1338:	40658133          	sub	sp,a1,t1
    133c:	1860f753          	fdiv.s	fa4,ft1,ft6
    1340:	efe3a913          	slti	s2,t2,-258
    1344:	01337153          	fadd.s	ft2,ft6,fs3
    1348:	a169add3          	feq.s	s11,fs3,fs6
    134c:	01525533          	srl	a0,tp,s5
    1350:	29438fd3          	fmin.s	ft11,ft7,fs4
    1354:	580bf353          	fsqrt.s	ft6,fs7
    1358:	29319653          	fmax.s	fa2,ft3,fs3
    135c:	21e5afd3          	fsgnjx.s	ft11,fa1,ft10
    1360:	010ae9b3          	or	s3,s5,a6
    1364:	58037153          	fsqrt.s	ft2,ft6
    1368:	02fce8b3          	rem	a7,s9,a5
    136c:	012db533          	sltu	a0,s11,s2
    1370:	007b7ed3          	fadd.s	ft9,fs6,ft7
    1374:	40e4d233          	sra	tp,s1,a4
    1378:	f0030d53          	fmv.w.x	fs10,t1
    137c:	20519fd3          	fsgnjn.s	ft11,ft3,ft5
    1380:	1f797413          	andi	s0,s2,503
    1384:	b4b5fc93          	andi	s9,a1,-1205
    1388:	01b04933          	xor	s2,zero,s11
    138c:	20141fd3          	fsgnjn.s	ft11,fs0,ft1
    1390:	21aa8553          	fsgnj.s	fa0,fs5,fs10
    1394:	0319a033          	mulhsu	zero,s3,a7
    1398:	03ca47b3          	div	a5,s4,t3
    139c:	00000013          	addi	zero,zero,0
    13a0:	2b494293          	xori	t0,s2,692
    13a4:	411d5c33          	sra	s8,s10,a7
    13a8:	02a03cb3          	mulhu	s9,zero,a0
    13ac:	09a6fbd3          	fsub.s	fs7,fa3,fs10
    13b0:	5361b313          	sltiu	t1,gp,1334
    13b4:	00b27b53          	fadd.s	fs6,ft4,fa1
    13b8:	03f9d7b3          	divu	a5,s3,t6
    13bc:	035ac2b3          	div	t0,s5,s5
    13c0:	024eaeb3          	mulhsu	t4,t4,tp
    13c4:	a1c426d3          	feq.s	a3,fs0,ft8
    13c8:	00be6033          	or	zero,t3,a1
    13cc:	4080d693          	srai	a3,ra,0x8
    13d0:	580176d3          	fsqrt.s	fa3,ft2
    13d4:	c00576d3          	fcvt.w.s	a3,fa0
    13d8:	024ab133          	mulhu	sp,s5,tp
    13dc:	41a352b3          	sra	t0,t1,s10
    13e0:	a1c6a253          	feq.s	tp,fa3,ft8
    13e4:	a1819ad3          	flt.s	s5,ft3,fs8
    13e8:	295fe813          	ori	a6,t6,661
    13ec:	01e28a33          	add	s4,t0,t5
    13f0:	20c58b53          	fsgnj.s	fs6,fa1,fa2
    13f4:	29231e53          	fmax.s	ft8,ft6,fs2
    13f8:	00efb5b3          	sltu	a1,t6,a4
    13fc:	41e7dbb3          	sra	s7,a5,t5
    1400:	a1a70d13          	addi	s10,a4,-1510 # 0x25d90a1a
    1404:	00871313          	slli	t1,a4,0x8
    1408:	6a5c3013          	sltiu	zero,s8,1701
    140c:	0274e033          	rem	zero,s1,t2
    1410:	000c1733          	sll	a4,s8,zero
    1414:	03e2c833          	div	a6,t0,t5
    1418:	0101f153          	fadd.s	ft2,ft3,fa6
    141c:	e00716d3          	fclass.s	a3,fa4
    1420:	105e7613          	andi	a2,t3,261
    1424:	00fc2e33          	slt	t3,s8,a5
    1428:	f0000653          	fmv.w.x	fa2,zero
    142c:	c00a7053          	fcvt.w.s	zero,fs4
    1430:	580ffad3          	fsqrt.s	fs5,ft11
    1434:	02053cb3          	mulhu	s9,a0,zero
    1438:	40ae0db3          	sub	s11,t3,a0
    143c:	00f17433          	and	s0,sp,a5
    1440:	c0017953          	fcvt.w.s	s2,ft2
    1444:	e0020d53          	fmv.x.w	s10,ft4
    1448:	9af700b7          	lui	ra,0x9af70
    144c:	4132d013          	srai	zero,t0,0x13
    1450:	02b631b3          	mulhu	gp,a2,a1
    1454:	21dc25d3          	fsgnjx.s	fa1,fs8,ft9
    1458:	41450a33          	sub	s4,a0,s4
    145c:	19427553          	fdiv.s	fa0,ft4,fs4
    1460:	01c05413          	srli	s0,zero,0x1c
    1464:	a16dac53          	feq.s	s8,fs11,fs6
    1468:	0224beb3          	mulhu	t4,s1,sp
    146c:	03b78033          	mul	zero,a5,s11
    1470:	0065d193          	srli	gp,a1,0x6
    1474:	28428fd3          	fmin.s	ft11,ft5,ft4
    1478:	002c8433          	add	s0,s9,sp
    147c:	00ab5a13          	srli	s4,s6,0xa
    1480:	08ccfc53          	fsub.s	fs8,fs9,fa2
    1484:	01f37033          	and	zero,t1,t6
    1488:	19367f53          	fdiv.s	ft10,fa2,fs3
    148c:	01d6c2b3          	xor	t0,a3,t4
    1490:	01e55133          	srl	sp,a0,t5
    1494:	00d75813          	srli	a6,a4,0xd
    1498:	01d49ab3          	sll	s5,s1,t4
    149c:	bdd08313          	addi	t1,ra,-1059 # 0xffffffff9af6fbdd
    14a0:	41ebd793          	srai	a5,s7,0x1e
    14a4:	192071d3          	fdiv.s	ft3,ft0,fs2
    14a8:	8d51a517          	auipc	a0,0x8d51a
    14ac:	03bf0b33          	mul	s6,t5,s11
    14b0:	e00019d3          	fclass.s	s3,ft0
    14b4:	01299593          	slli	a1,s3,0x12
    14b8:	5801fdd3          	fsqrt.s	fs11,ft3
    14bc:	0144d933          	srl	s2,s1,s4
    14c0:	01f04a33          	xor	s4,zero,t6
    14c4:	02b3c8b3          	div	a7,t2,a1
    14c8:	010b9213          	slli	tp,s7,0x10
    14cc:	40748133          	sub	sp,s1,t2
    14d0:	00624733          	xor	a4,tp,t1
    14d4:	401983b3          	sub	t2,s3,ra
    14d8:	28288bd3          	fmin.s	fs7,fa7,ft2
    14dc:	02dfa8b3          	mulhsu	a7,t6,a3
    14e0:	4183d7b3          	sra	a5,t2,s8
    14e4:	c01ffdd3          	fcvt.wu.s	s11,ft11
    14e8:	0110bcb3          	sltu	s9,ra,a7
    14ec:	01299433          	sll	s0,s3,s2
    14f0:	1166ffd3          	fmul.s	ft11,fa3,fs6
    14f4:	4092da33          	sra	s4,t0,s1
    14f8:	8c30a693          	slti	a3,ra,-1853
    14fc:	a16d2b53          	feq.s	s6,fs10,fs6
    1500:	024da7b3          	mulhsu	a5,s11,tp
    1504:	01c581b7          	lui	gp,0x1c58
    1508:	20e302d3          	fsgnj.s	ft5,ft6,fa4
    150c:	3a2bf993          	andi	s3,s7,930
    1510:	00000013          	addi	zero,zero,0
    1514:	01612c33          	slt	s8,sp,s6
    1518:	d006f7d3          	fcvt.s.w	fa5,a3
    151c:	1010fd53          	fmul.s	fs10,ft1,ft1
    1520:	215a2ad3          	fsgnjx.s	fs5,fs4,fs5
    1524:	f0098dd3          	fmv.w.x	fs11,s3
    1528:	a03ea1d3          	feq.s	gp,ft9,ft3
    152c:	01605b93          	srli	s7,zero,0x16
    1530:	295d8953          	fmin.s	fs2,fs11,fs5
    1534:	030ed7b3          	divu	a5,t4,a6
    1538:	2065a8d3          	fsgnjx.s	fa7,fa1,ft6
    153c:	409cd033          	sra	zero,s9,s1
    1540:	405e5a13          	srai	s4,t3,0x5
    1544:	82c08693          	addi	a3,ra,-2004
    1548:	2021aed3          	fsgnjx.s	ft9,ft3,ft2
    154c:	034301b3          	mul	gp,t1,s4
    1550:	d0017ed3          	fcvt.s.w	ft9,sp
    1554:	28c191d3          	fmax.s	ft3,ft3,fa2
    1558:	f0020653          	fmv.w.x	fa2,tp
    155c:	d01d7cd3          	fcvt.s.wu	fs9,s10
    1560:	c01cfa53          	fcvt.wu.s	s4,fs9
    1564:	340c3a93          	sltiu	s5,s8,832
    1568:	a0a92a53          	feq.s	s4,fs2,fa0
    156c:	8460f013          	andi	zero,ra,-1978
    1570:	036413b3          	mulh	t2,s0,s6
    1574:	a0478a53          	fle.s	s4,fa5,ft4
    1578:	18eaf8d3          	fdiv.s	fa7,fs5,fa4
    157c:	d00ef853          	fcvt.s.w	fa6,t4
    1580:	006b5433          	srl	s0,s6,t1
    1584:	40f08e33          	sub	t3,ra,a5
    1588:	bb6af113          	andi	sp,s5,-1098
    158c:	a951b837          	lui	a6,0xa951b
    1590:	00107633          	and	a2,zero,ra
    1594:	014a3db3          	sltu	s11,s4,s4
    1598:	00c80933          	add	s2,a6,a2
    159c:	5803f6d3          	fsqrt.s	fa3,ft7
    15a0:	008b6ab3          	or	s5,s6,s0
    15a4:	e00b1253          	fclass.s	tp,fs6
    15a8:	83670d13          	addi	s10,a4,-1994
    15ac:	019fd993          	srli	s3,t6,0x19
    15b0:	e56bb697          	auipc	a3,0xe56bb
    15b4:	026de633          	rem	a2,s11,t1
    15b8:	010b9133          	sll	sp,s7,a6
    15bc:	a18ab113          	sltiu	sp,s5,-1512
    15c0:	02773eb3          	mulhu	t4,a4,t2
    15c4:	114f7453          	fmul.s	fs0,ft10,fs4
    15c8:	09657453          	fsub.s	fs0,fa0,fs6
    15cc:	5805fbd3          	fsqrt.s	fs7,fa1
    15d0:	c009fb53          	fcvt.w.s	s6,fs3
    15d4:	c01df7d3          	fcvt.wu.s	a5,fs11
    15d8:	029a6733          	rem	a4,s4,s1
    15dc:	00e8f053          	fadd.s	ft0,fa7,fa4
    15e0:	f32ce013          	ori	zero,s9,-206
    15e4:	580cf1d3          	fsqrt.s	ft3,fs9
    15e8:	f00486d3          	fmv.w.x	fa3,s1
    15ec:	02456733          	rem	a4,a0,tp
    15f0:	000466b3          	or	a3,s0,zero
    15f4:	219e0dd3          	fsgnj.s	fs11,ft8,fs9
    15f8:	033996b3          	mulh	a3,s3,s3
    15fc:	c0067553          	fcvt.w.s	a0,fa2
    1600:	007df753          	fadd.s	fa4,fs11,ft7
    1604:	0150bcb3          	sltu	s9,ra,s5
    1608:	c00578d3          	fcvt.w.s	a7,fa0
    160c:	18cd70d3          	fdiv.s	ft1,fs10,fa2
    1610:	e00d81d3          	fmv.x.w	gp,fs11
    1614:	d00bf953          	fcvt.s.w	fs2,s7
    1618:	016221b3          	slt	gp,tp,s6
    161c:	5805ff53          	fsqrt.s	ft10,fa1
    1620:	02841433          	mulh	s0,s0,s0
    1624:	098e72d3          	fsub.s	ft5,ft8,fs8
    1628:	e0021953          	fclass.s	s2,ft4
    162c:	03919333          	mulh	t1,gp,s9
    1630:	00000013          	addi	zero,zero,0
    1634:	f00886d3          	fmv.w.x	fa3,a7
    1638:	203db037          	lui	zero,0x203db
    163c:	28241ed3          	fmax.s	ft9,fs0,ft2
    1640:	d0197ed3          	fcvt.s.wu	ft9,s2
    1644:	019257b3          	srl	a5,tp,s9
    1648:	6b4ce013          	ori	zero,s9,1716
    164c:	013fb5b3          	sltu	a1,t6,s3
    1650:	c016fed3          	fcvt.wu.s	t4,fa3
    1654:	286c1fd3          	fmax.s	ft11,fs8,ft6
    1658:	03e0cbb3          	div	s7,ra,t5
    165c:	41535d33          	sra	s10,t1,s5
    1660:	0024d313          	srli	t1,s1,0x2
    1664:	9c903cb7          	lui	s9,0x9c903
    1668:	01255133          	srl	sp,a0,s2
    166c:	00a65233          	srl	tp,a2,a0
    1670:	0159c233          	xor	tp,s3,s5
    1674:	19357453          	fdiv.s	fs0,fa0,fs3
    1678:	013f9793          	slli	a5,t6,0x13
    167c:	a0d3abd3          	feq.s	s7,ft7,fa3
    1680:	00000013          	addi	zero,zero,0
    1684:	a06e8d53          	fle.s	s10,ft9,ft6
    1688:	0e4fbc97          	auipc	s9,0xe4fb
    168c:	01ed27b3          	slt	a5,s10,t5
    1690:	2132afd3          	fsgnjx.s	ft11,ft5,fs3
    1694:	a04f1ad3          	flt.s	s5,ft10,ft4
    1698:	c01370d3          	fcvt.wu.s	ra,ft6
    169c:	849e2693          	slti	a3,t3,-1975
    16a0:	0098f1b3          	and	gp,a7,s1
    16a4:	c0137053          	fcvt.wu.s	zero,ft6
    16a8:	03225233          	divu	tp,tp,s2
    16ac:	f0000053          	fmv.w.x	ft0,zero
    16b0:	12c1e013          	ori	zero,gp,300
    16b4:	28c48b53          	fmin.s	fs6,fs1,fa2
    16b8:	0004f7b3          	and	a5,s1,zero
    16bc:	c41e8193          	addi	gp,t4,-959
    16c0:	033d6033          	rem	zero,s10,s3
    16c4:	00000f97          	auipc	t6,0x0
    16c8:	00cf8f93          	addi	t6,t6,12 # 0x16d0
    16cc:	000f8067          	jalr	zero,0(t6)
    16d0:	00100193          	addi	gp,zero,1
    16d4:	00000073          	ecall
    16d8:	00006f17          	auipc	t5,0x6
    16dc:	923f2423          	sw	gp,-1752(t5) # 0x7000
    16e0:	ff9ff06f          	jal	zero,0x16d8
    16e4:	00000013          	addi	zero,zero,0
    16e8:	340f1f73          	csrrw	t5,mscratch,t5
    16ec:	00048f33          	add	t5,s1,zero
    16f0:	f84f0f13          	addi	t5,t5,-124
    16f4:	001f2223          	sw	ra,4(t5)
    16f8:	002f2423          	sw	sp,8(t5)
    16fc:	003f2623          	sw	gp,12(t5)
    1700:	004f2823          	sw	tp,16(t5)
    1704:	005f2a23          	sw	t0,20(t5)
    1708:	006f2c23          	sw	t1,24(t5)
    170c:	007f2e23          	sw	t2,28(t5)
    1710:	028f2023          	sw	s0,32(t5)
    1714:	029f2223          	sw	s1,36(t5)
    1718:	02af2423          	sw	a0,40(t5)
    171c:	02bf2623          	sw	a1,44(t5)
    1720:	02cf2823          	sw	a2,48(t5)
    1724:	02df2a23          	sw	a3,52(t5)
    1728:	02ef2c23          	sw	a4,56(t5)
    172c:	02ff2e23          	sw	a5,60(t5)
    1730:	050f2023          	sw	a6,64(t5)
    1734:	051f2223          	sw	a7,68(t5)
    1738:	052f2423          	sw	s2,72(t5)
    173c:	053f2623          	sw	s3,76(t5)
    1740:	054f2823          	sw	s4,80(t5)
    1744:	055f2a23          	sw	s5,84(t5)
    1748:	056f2c23          	sw	s6,88(t5)
    174c:	057f2e23          	sw	s7,92(t5)
    1750:	078f2023          	sw	s8,96(t5)
    1754:	079f2223          	sw	s9,100(t5)
    1758:	07af2423          	sw	s10,104(t5)
    175c:	07bf2623          	sw	s11,108(t5)
    1760:	07cf2823          	sw	t3,112(t5)
    1764:	07df2a23          	sw	t4,116(t5)
    1768:	07ef2c23          	sw	t5,120(t5)
    176c:	07ff2e23          	sw	t6,124(t5)
    1770:	34202d73          	csrrs	s10,mcause,zero
    1774:	01fd5d13          	srli	s10,s10,0x1f
    1778:	000d0463          	beq	s10,zero,0x1780
    177c:	3310006f          	jal	zero,0x22ac
    1780:	00000f97          	auipc	t6,0x0
    1784:	f50f8f93          	addi	t6,t6,-176 # 0x16d0
    1788:	000f8067          	jalr	zero,0(t6)
    178c:	340f1f73          	csrrw	t5,mscratch,t5
    1790:	00048f33          	add	t5,s1,zero
    1794:	f84f0f13          	addi	t5,t5,-124
    1798:	001f2223          	sw	ra,4(t5)
    179c:	002f2423          	sw	sp,8(t5)
    17a0:	003f2623          	sw	gp,12(t5)
    17a4:	004f2823          	sw	tp,16(t5)
    17a8:	005f2a23          	sw	t0,20(t5)
    17ac:	006f2c23          	sw	t1,24(t5)
    17b0:	007f2e23          	sw	t2,28(t5)
    17b4:	028f2023          	sw	s0,32(t5)
    17b8:	029f2223          	sw	s1,36(t5)
    17bc:	02af2423          	sw	a0,40(t5)
    17c0:	02bf2623          	sw	a1,44(t5)
    17c4:	02cf2823          	sw	a2,48(t5)
    17c8:	02df2a23          	sw	a3,52(t5)
    17cc:	02ef2c23          	sw	a4,56(t5)
    17d0:	02ff2e23          	sw	a5,60(t5)
    17d4:	050f2023          	sw	a6,64(t5)
    17d8:	051f2223          	sw	a7,68(t5)
    17dc:	052f2423          	sw	s2,72(t5)
    17e0:	053f2623          	sw	s3,76(t5)
    17e4:	054f2823          	sw	s4,80(t5)
    17e8:	055f2a23          	sw	s5,84(t5)
    17ec:	056f2c23          	sw	s6,88(t5)
    17f0:	057f2e23          	sw	s7,92(t5)
    17f4:	078f2023          	sw	s8,96(t5)
    17f8:	079f2223          	sw	s9,100(t5)
    17fc:	07af2423          	sw	s10,104(t5)
    1800:	07bf2623          	sw	s11,108(t5)
    1804:	07cf2823          	sw	t3,112(t5)
    1808:	07df2a23          	sw	t4,116(t5)
    180c:	07ef2c23          	sw	t5,120(t5)
    1810:	07ff2e23          	sw	t6,124(t5)
    1814:	34202d73          	csrrs	s10,mcause,zero
    1818:	01fd5d13          	srli	s10,s10,0x1f
    181c:	000d0463          	beq	s10,zero,0x1824
    1820:	28d0006f          	jal	zero,0x22ac
    1824:	00000f97          	auipc	t6,0x0
    1828:	eacf8f93          	addi	t6,t6,-340 # 0x16d0
    182c:	000f8067          	jalr	zero,0(t6)
    1830:	340f1f73          	csrrw	t5,mscratch,t5
    1834:	00048f33          	add	t5,s1,zero
    1838:	f84f0f13          	addi	t5,t5,-124
    183c:	001f2223          	sw	ra,4(t5)
    1840:	002f2423          	sw	sp,8(t5)
    1844:	003f2623          	sw	gp,12(t5)
    1848:	004f2823          	sw	tp,16(t5)
    184c:	005f2a23          	sw	t0,20(t5)
    1850:	006f2c23          	sw	t1,24(t5)
    1854:	007f2e23          	sw	t2,28(t5)
    1858:	028f2023          	sw	s0,32(t5)
    185c:	029f2223          	sw	s1,36(t5)
    1860:	02af2423          	sw	a0,40(t5)
    1864:	02bf2623          	sw	a1,44(t5)
    1868:	02cf2823          	sw	a2,48(t5)
    186c:	02df2a23          	sw	a3,52(t5)
    1870:	02ef2c23          	sw	a4,56(t5)
    1874:	02ff2e23          	sw	a5,60(t5)
    1878:	050f2023          	sw	a6,64(t5)
    187c:	051f2223          	sw	a7,68(t5)
    1880:	052f2423          	sw	s2,72(t5)
    1884:	053f2623          	sw	s3,76(t5)
    1888:	054f2823          	sw	s4,80(t5)
    188c:	055f2a23          	sw	s5,84(t5)
    1890:	056f2c23          	sw	s6,88(t5)
    1894:	057f2e23          	sw	s7,92(t5)
    1898:	078f2023          	sw	s8,96(t5)
    189c:	079f2223          	sw	s9,100(t5)
    18a0:	07af2423          	sw	s10,104(t5)
    18a4:	07bf2623          	sw	s11,108(t5)
    18a8:	07cf2823          	sw	t3,112(t5)
    18ac:	07df2a23          	sw	t4,116(t5)
    18b0:	07ef2c23          	sw	t5,120(t5)
    18b4:	07ff2e23          	sw	t6,124(t5)
    18b8:	34202d73          	csrrs	s10,mcause,zero
    18bc:	01fd5d13          	srli	s10,s10,0x1f
    18c0:	000d0463          	beq	s10,zero,0x18c8
    18c4:	1e90006f          	jal	zero,0x22ac
    18c8:	00000f97          	auipc	t6,0x0
    18cc:	e08f8f93          	addi	t6,t6,-504 # 0x16d0
    18d0:	000f8067          	jalr	zero,0(t6)
    18d4:	340f1f73          	csrrw	t5,mscratch,t5
    18d8:	00048f33          	add	t5,s1,zero
    18dc:	f84f0f13          	addi	t5,t5,-124
    18e0:	001f2223          	sw	ra,4(t5)
    18e4:	002f2423          	sw	sp,8(t5)
    18e8:	003f2623          	sw	gp,12(t5)
    18ec:	004f2823          	sw	tp,16(t5)
    18f0:	005f2a23          	sw	t0,20(t5)
    18f4:	006f2c23          	sw	t1,24(t5)
    18f8:	007f2e23          	sw	t2,28(t5)
    18fc:	028f2023          	sw	s0,32(t5)
    1900:	029f2223          	sw	s1,36(t5)
    1904:	02af2423          	sw	a0,40(t5)
    1908:	02bf2623          	sw	a1,44(t5)
    190c:	02cf2823          	sw	a2,48(t5)
    1910:	02df2a23          	sw	a3,52(t5)
    1914:	02ef2c23          	sw	a4,56(t5)
    1918:	02ff2e23          	sw	a5,60(t5)
    191c:	050f2023          	sw	a6,64(t5)
    1920:	051f2223          	sw	a7,68(t5)
    1924:	052f2423          	sw	s2,72(t5)
    1928:	053f2623          	sw	s3,76(t5)
    192c:	054f2823          	sw	s4,80(t5)
    1930:	055f2a23          	sw	s5,84(t5)
    1934:	056f2c23          	sw	s6,88(t5)
    1938:	057f2e23          	sw	s7,92(t5)
    193c:	078f2023          	sw	s8,96(t5)
    1940:	079f2223          	sw	s9,100(t5)
    1944:	07af2423          	sw	s10,104(t5)
    1948:	07bf2623          	sw	s11,108(t5)
    194c:	07cf2823          	sw	t3,112(t5)
    1950:	07df2a23          	sw	t4,116(t5)
    1954:	07ef2c23          	sw	t5,120(t5)
    1958:	07ff2e23          	sw	t6,124(t5)
    195c:	34202d73          	csrrs	s10,mcause,zero
    1960:	01fd5d13          	srli	s10,s10,0x1f
    1964:	000d0463          	beq	s10,zero,0x196c
    1968:	1450006f          	jal	zero,0x22ac
    196c:	00000f97          	auipc	t6,0x0
    1970:	d64f8f93          	addi	t6,t6,-668 # 0x16d0
    1974:	000f8067          	jalr	zero,0(t6)
    1978:	340f1f73          	csrrw	t5,mscratch,t5
    197c:	00048f33          	add	t5,s1,zero
    1980:	f84f0f13          	addi	t5,t5,-124
    1984:	001f2223          	sw	ra,4(t5)
    1988:	002f2423          	sw	sp,8(t5)
    198c:	003f2623          	sw	gp,12(t5)
    1990:	004f2823          	sw	tp,16(t5)
    1994:	005f2a23          	sw	t0,20(t5)
    1998:	006f2c23          	sw	t1,24(t5)
    199c:	007f2e23          	sw	t2,28(t5)
    19a0:	028f2023          	sw	s0,32(t5)
    19a4:	029f2223          	sw	s1,36(t5)
    19a8:	02af2423          	sw	a0,40(t5)
    19ac:	02bf2623          	sw	a1,44(t5)
    19b0:	02cf2823          	sw	a2,48(t5)
    19b4:	02df2a23          	sw	a3,52(t5)
    19b8:	02ef2c23          	sw	a4,56(t5)
    19bc:	02ff2e23          	sw	a5,60(t5)
    19c0:	050f2023          	sw	a6,64(t5)
    19c4:	051f2223          	sw	a7,68(t5)
    19c8:	052f2423          	sw	s2,72(t5)
    19cc:	053f2623          	sw	s3,76(t5)
    19d0:	054f2823          	sw	s4,80(t5)
    19d4:	055f2a23          	sw	s5,84(t5)
    19d8:	056f2c23          	sw	s6,88(t5)
    19dc:	057f2e23          	sw	s7,92(t5)
    19e0:	078f2023          	sw	s8,96(t5)
    19e4:	079f2223          	sw	s9,100(t5)
    19e8:	07af2423          	sw	s10,104(t5)
    19ec:	07bf2623          	sw	s11,108(t5)
    19f0:	07cf2823          	sw	t3,112(t5)
    19f4:	07df2a23          	sw	t4,116(t5)
    19f8:	07ef2c23          	sw	t5,120(t5)
    19fc:	07ff2e23          	sw	t6,124(t5)
    1a00:	34202d73          	csrrs	s10,mcause,zero
    1a04:	01fd5d13          	srli	s10,s10,0x1f
    1a08:	000d0463          	beq	s10,zero,0x1a10
    1a0c:	0a10006f          	jal	zero,0x22ac
    1a10:	00000f97          	auipc	t6,0x0
    1a14:	cc0f8f93          	addi	t6,t6,-832 # 0x16d0
    1a18:	000f8067          	jalr	zero,0(t6)
    1a1c:	340f1f73          	csrrw	t5,mscratch,t5
    1a20:	00048f33          	add	t5,s1,zero
    1a24:	f84f0f13          	addi	t5,t5,-124
    1a28:	001f2223          	sw	ra,4(t5)
    1a2c:	002f2423          	sw	sp,8(t5)
    1a30:	003f2623          	sw	gp,12(t5)
    1a34:	004f2823          	sw	tp,16(t5)
    1a38:	005f2a23          	sw	t0,20(t5)
    1a3c:	006f2c23          	sw	t1,24(t5)
    1a40:	007f2e23          	sw	t2,28(t5)
    1a44:	028f2023          	sw	s0,32(t5)
    1a48:	029f2223          	sw	s1,36(t5)
    1a4c:	02af2423          	sw	a0,40(t5)
    1a50:	02bf2623          	sw	a1,44(t5)
    1a54:	02cf2823          	sw	a2,48(t5)
    1a58:	02df2a23          	sw	a3,52(t5)
    1a5c:	02ef2c23          	sw	a4,56(t5)
    1a60:	02ff2e23          	sw	a5,60(t5)
    1a64:	050f2023          	sw	a6,64(t5)
    1a68:	051f2223          	sw	a7,68(t5)
    1a6c:	052f2423          	sw	s2,72(t5)
    1a70:	053f2623          	sw	s3,76(t5)
    1a74:	054f2823          	sw	s4,80(t5)
    1a78:	055f2a23          	sw	s5,84(t5)
    1a7c:	056f2c23          	sw	s6,88(t5)
    1a80:	057f2e23          	sw	s7,92(t5)
    1a84:	078f2023          	sw	s8,96(t5)
    1a88:	079f2223          	sw	s9,100(t5)
    1a8c:	07af2423          	sw	s10,104(t5)
    1a90:	07bf2623          	sw	s11,108(t5)
    1a94:	07cf2823          	sw	t3,112(t5)
    1a98:	07df2a23          	sw	t4,116(t5)
    1a9c:	07ef2c23          	sw	t5,120(t5)
    1aa0:	07ff2e23          	sw	t6,124(t5)
    1aa4:	34202d73          	csrrs	s10,mcause,zero
    1aa8:	01fd5d13          	srli	s10,s10,0x1f
    1aac:	000d0463          	beq	s10,zero,0x1ab4
    1ab0:	7fc0006f          	jal	zero,0x22ac
    1ab4:	00000f97          	auipc	t6,0x0
    1ab8:	c1cf8f93          	addi	t6,t6,-996 # 0x16d0
    1abc:	000f8067          	jalr	zero,0(t6)
    1ac0:	340f1f73          	csrrw	t5,mscratch,t5
    1ac4:	00048f33          	add	t5,s1,zero
    1ac8:	f84f0f13          	addi	t5,t5,-124
    1acc:	001f2223          	sw	ra,4(t5)
    1ad0:	002f2423          	sw	sp,8(t5)
    1ad4:	003f2623          	sw	gp,12(t5)
    1ad8:	004f2823          	sw	tp,16(t5)
    1adc:	005f2a23          	sw	t0,20(t5)
    1ae0:	006f2c23          	sw	t1,24(t5)
    1ae4:	007f2e23          	sw	t2,28(t5)
    1ae8:	028f2023          	sw	s0,32(t5)
    1aec:	029f2223          	sw	s1,36(t5)
    1af0:	02af2423          	sw	a0,40(t5)
    1af4:	02bf2623          	sw	a1,44(t5)
    1af8:	02cf2823          	sw	a2,48(t5)
    1afc:	02df2a23          	sw	a3,52(t5)
    1b00:	02ef2c23          	sw	a4,56(t5)
    1b04:	02ff2e23          	sw	a5,60(t5)
    1b08:	050f2023          	sw	a6,64(t5)
    1b0c:	051f2223          	sw	a7,68(t5)
    1b10:	052f2423          	sw	s2,72(t5)
    1b14:	053f2623          	sw	s3,76(t5)
    1b18:	054f2823          	sw	s4,80(t5)
    1b1c:	055f2a23          	sw	s5,84(t5)
    1b20:	056f2c23          	sw	s6,88(t5)
    1b24:	057f2e23          	sw	s7,92(t5)
    1b28:	078f2023          	sw	s8,96(t5)
    1b2c:	079f2223          	sw	s9,100(t5)
    1b30:	07af2423          	sw	s10,104(t5)
    1b34:	07bf2623          	sw	s11,108(t5)
    1b38:	07cf2823          	sw	t3,112(t5)
    1b3c:	07df2a23          	sw	t4,116(t5)
    1b40:	07ef2c23          	sw	t5,120(t5)
    1b44:	07ff2e23          	sw	t6,124(t5)
    1b48:	34202d73          	csrrs	s10,mcause,zero
    1b4c:	01fd5d13          	srli	s10,s10,0x1f
    1b50:	000d0463          	beq	s10,zero,0x1b58
    1b54:	7580006f          	jal	zero,0x22ac
    1b58:	00000f97          	auipc	t6,0x0
    1b5c:	b78f8f93          	addi	t6,t6,-1160 # 0x16d0
    1b60:	000f8067          	jalr	zero,0(t6)
    1b64:	340f1f73          	csrrw	t5,mscratch,t5
    1b68:	00048f33          	add	t5,s1,zero
    1b6c:	f84f0f13          	addi	t5,t5,-124
    1b70:	001f2223          	sw	ra,4(t5)
    1b74:	002f2423          	sw	sp,8(t5)
    1b78:	003f2623          	sw	gp,12(t5)
    1b7c:	004f2823          	sw	tp,16(t5)
    1b80:	005f2a23          	sw	t0,20(t5)
    1b84:	006f2c23          	sw	t1,24(t5)
    1b88:	007f2e23          	sw	t2,28(t5)
    1b8c:	028f2023          	sw	s0,32(t5)
    1b90:	029f2223          	sw	s1,36(t5)
    1b94:	02af2423          	sw	a0,40(t5)
    1b98:	02bf2623          	sw	a1,44(t5)
    1b9c:	02cf2823          	sw	a2,48(t5)
    1ba0:	02df2a23          	sw	a3,52(t5)
    1ba4:	02ef2c23          	sw	a4,56(t5)
    1ba8:	02ff2e23          	sw	a5,60(t5)
    1bac:	050f2023          	sw	a6,64(t5)
    1bb0:	051f2223          	sw	a7,68(t5)
    1bb4:	052f2423          	sw	s2,72(t5)
    1bb8:	053f2623          	sw	s3,76(t5)
    1bbc:	054f2823          	sw	s4,80(t5)
    1bc0:	055f2a23          	sw	s5,84(t5)
    1bc4:	056f2c23          	sw	s6,88(t5)
    1bc8:	057f2e23          	sw	s7,92(t5)
    1bcc:	078f2023          	sw	s8,96(t5)
    1bd0:	079f2223          	sw	s9,100(t5)
    1bd4:	07af2423          	sw	s10,104(t5)
    1bd8:	07bf2623          	sw	s11,108(t5)
    1bdc:	07cf2823          	sw	t3,112(t5)
    1be0:	07df2a23          	sw	t4,116(t5)
    1be4:	07ef2c23          	sw	t5,120(t5)
    1be8:	07ff2e23          	sw	t6,124(t5)
    1bec:	34202d73          	csrrs	s10,mcause,zero
    1bf0:	01fd5d13          	srli	s10,s10,0x1f
    1bf4:	000d0463          	beq	s10,zero,0x1bfc
    1bf8:	6b40006f          	jal	zero,0x22ac
    1bfc:	00000f97          	auipc	t6,0x0
    1c00:	ad4f8f93          	addi	t6,t6,-1324 # 0x16d0
    1c04:	000f8067          	jalr	zero,0(t6)
    1c08:	340f1f73          	csrrw	t5,mscratch,t5
    1c0c:	00048f33          	add	t5,s1,zero
    1c10:	f84f0f13          	addi	t5,t5,-124
    1c14:	001f2223          	sw	ra,4(t5)
    1c18:	002f2423          	sw	sp,8(t5)
    1c1c:	003f2623          	sw	gp,12(t5)
    1c20:	004f2823          	sw	tp,16(t5)
    1c24:	005f2a23          	sw	t0,20(t5)
    1c28:	006f2c23          	sw	t1,24(t5)
    1c2c:	007f2e23          	sw	t2,28(t5)
    1c30:	028f2023          	sw	s0,32(t5)
    1c34:	029f2223          	sw	s1,36(t5)
    1c38:	02af2423          	sw	a0,40(t5)
    1c3c:	02bf2623          	sw	a1,44(t5)
    1c40:	02cf2823          	sw	a2,48(t5)
    1c44:	02df2a23          	sw	a3,52(t5)
    1c48:	02ef2c23          	sw	a4,56(t5)
    1c4c:	02ff2e23          	sw	a5,60(t5)
    1c50:	050f2023          	sw	a6,64(t5)
    1c54:	051f2223          	sw	a7,68(t5)
    1c58:	052f2423          	sw	s2,72(t5)
    1c5c:	053f2623          	sw	s3,76(t5)
    1c60:	054f2823          	sw	s4,80(t5)
    1c64:	055f2a23          	sw	s5,84(t5)
    1c68:	056f2c23          	sw	s6,88(t5)
    1c6c:	057f2e23          	sw	s7,92(t5)
    1c70:	078f2023          	sw	s8,96(t5)
    1c74:	079f2223          	sw	s9,100(t5)
    1c78:	07af2423          	sw	s10,104(t5)
    1c7c:	07bf2623          	sw	s11,108(t5)
    1c80:	07cf2823          	sw	t3,112(t5)
    1c84:	07df2a23          	sw	t4,116(t5)
    1c88:	07ef2c23          	sw	t5,120(t5)
    1c8c:	07ff2e23          	sw	t6,124(t5)
    1c90:	34202d73          	csrrs	s10,mcause,zero
    1c94:	01fd5d13          	srli	s10,s10,0x1f
    1c98:	000d0463          	beq	s10,zero,0x1ca0
    1c9c:	6100006f          	jal	zero,0x22ac
    1ca0:	00000f97          	auipc	t6,0x0
    1ca4:	a30f8f93          	addi	t6,t6,-1488 # 0x16d0
    1ca8:	000f8067          	jalr	zero,0(t6)
    1cac:	340f1f73          	csrrw	t5,mscratch,t5
    1cb0:	00048f33          	add	t5,s1,zero
    1cb4:	f84f0f13          	addi	t5,t5,-124
    1cb8:	001f2223          	sw	ra,4(t5)
    1cbc:	002f2423          	sw	sp,8(t5)
    1cc0:	003f2623          	sw	gp,12(t5)
    1cc4:	004f2823          	sw	tp,16(t5)
    1cc8:	005f2a23          	sw	t0,20(t5)
    1ccc:	006f2c23          	sw	t1,24(t5)
    1cd0:	007f2e23          	sw	t2,28(t5)
    1cd4:	028f2023          	sw	s0,32(t5)
    1cd8:	029f2223          	sw	s1,36(t5)
    1cdc:	02af2423          	sw	a0,40(t5)
    1ce0:	02bf2623          	sw	a1,44(t5)
    1ce4:	02cf2823          	sw	a2,48(t5)
    1ce8:	02df2a23          	sw	a3,52(t5)
    1cec:	02ef2c23          	sw	a4,56(t5)
    1cf0:	02ff2e23          	sw	a5,60(t5)
    1cf4:	050f2023          	sw	a6,64(t5)
    1cf8:	051f2223          	sw	a7,68(t5)
    1cfc:	052f2423          	sw	s2,72(t5)
    1d00:	053f2623          	sw	s3,76(t5)
    1d04:	054f2823          	sw	s4,80(t5)
    1d08:	055f2a23          	sw	s5,84(t5)
    1d0c:	056f2c23          	sw	s6,88(t5)
    1d10:	057f2e23          	sw	s7,92(t5)
    1d14:	078f2023          	sw	s8,96(t5)
    1d18:	079f2223          	sw	s9,100(t5)
    1d1c:	07af2423          	sw	s10,104(t5)
    1d20:	07bf2623          	sw	s11,108(t5)
    1d24:	07cf2823          	sw	t3,112(t5)
    1d28:	07df2a23          	sw	t4,116(t5)
    1d2c:	07ef2c23          	sw	t5,120(t5)
    1d30:	07ff2e23          	sw	t6,124(t5)
    1d34:	34202d73          	csrrs	s10,mcause,zero
    1d38:	01fd5d13          	srli	s10,s10,0x1f
    1d3c:	000d0463          	beq	s10,zero,0x1d44
    1d40:	56c0006f          	jal	zero,0x22ac
    1d44:	00000f97          	auipc	t6,0x0
    1d48:	98cf8f93          	addi	t6,t6,-1652 # 0x16d0
    1d4c:	000f8067          	jalr	zero,0(t6)
    1d50:	340f1f73          	csrrw	t5,mscratch,t5
    1d54:	00048f33          	add	t5,s1,zero
    1d58:	f84f0f13          	addi	t5,t5,-124
    1d5c:	001f2223          	sw	ra,4(t5)
    1d60:	002f2423          	sw	sp,8(t5)
    1d64:	003f2623          	sw	gp,12(t5)
    1d68:	004f2823          	sw	tp,16(t5)
    1d6c:	005f2a23          	sw	t0,20(t5)
    1d70:	006f2c23          	sw	t1,24(t5)
    1d74:	007f2e23          	sw	t2,28(t5)
    1d78:	028f2023          	sw	s0,32(t5)
    1d7c:	029f2223          	sw	s1,36(t5)
    1d80:	02af2423          	sw	a0,40(t5)
    1d84:	02bf2623          	sw	a1,44(t5)
    1d88:	02cf2823          	sw	a2,48(t5)
    1d8c:	02df2a23          	sw	a3,52(t5)
    1d90:	02ef2c23          	sw	a4,56(t5)
    1d94:	02ff2e23          	sw	a5,60(t5)
    1d98:	050f2023          	sw	a6,64(t5)
    1d9c:	051f2223          	sw	a7,68(t5)
    1da0:	052f2423          	sw	s2,72(t5)
    1da4:	053f2623          	sw	s3,76(t5)
    1da8:	054f2823          	sw	s4,80(t5)
    1dac:	055f2a23          	sw	s5,84(t5)
    1db0:	056f2c23          	sw	s6,88(t5)
    1db4:	057f2e23          	sw	s7,92(t5)
    1db8:	078f2023          	sw	s8,96(t5)
    1dbc:	079f2223          	sw	s9,100(t5)
    1dc0:	07af2423          	sw	s10,104(t5)
    1dc4:	07bf2623          	sw	s11,108(t5)
    1dc8:	07cf2823          	sw	t3,112(t5)
    1dcc:	07df2a23          	sw	t4,116(t5)
    1dd0:	07ef2c23          	sw	t5,120(t5)
    1dd4:	07ff2e23          	sw	t6,124(t5)
    1dd8:	34202d73          	csrrs	s10,mcause,zero
    1ddc:	01fd5d13          	srli	s10,s10,0x1f
    1de0:	000d0463          	beq	s10,zero,0x1de8
    1de4:	4c80006f          	jal	zero,0x22ac
    1de8:	00000f97          	auipc	t6,0x0
    1dec:	8e8f8f93          	addi	t6,t6,-1816 # 0x16d0
    1df0:	000f8067          	jalr	zero,0(t6)
    1df4:	340f1f73          	csrrw	t5,mscratch,t5
    1df8:	00048f33          	add	t5,s1,zero
    1dfc:	f84f0f13          	addi	t5,t5,-124
    1e00:	001f2223          	sw	ra,4(t5)
    1e04:	002f2423          	sw	sp,8(t5)
    1e08:	003f2623          	sw	gp,12(t5)
    1e0c:	004f2823          	sw	tp,16(t5)
    1e10:	005f2a23          	sw	t0,20(t5)
    1e14:	006f2c23          	sw	t1,24(t5)
    1e18:	007f2e23          	sw	t2,28(t5)
    1e1c:	028f2023          	sw	s0,32(t5)
    1e20:	029f2223          	sw	s1,36(t5)
    1e24:	02af2423          	sw	a0,40(t5)
    1e28:	02bf2623          	sw	a1,44(t5)
    1e2c:	02cf2823          	sw	a2,48(t5)
    1e30:	02df2a23          	sw	a3,52(t5)
    1e34:	02ef2c23          	sw	a4,56(t5)
    1e38:	02ff2e23          	sw	a5,60(t5)
    1e3c:	050f2023          	sw	a6,64(t5)
    1e40:	051f2223          	sw	a7,68(t5)
    1e44:	052f2423          	sw	s2,72(t5)
    1e48:	053f2623          	sw	s3,76(t5)
    1e4c:	054f2823          	sw	s4,80(t5)
    1e50:	055f2a23          	sw	s5,84(t5)
    1e54:	056f2c23          	sw	s6,88(t5)
    1e58:	057f2e23          	sw	s7,92(t5)
    1e5c:	078f2023          	sw	s8,96(t5)
    1e60:	079f2223          	sw	s9,100(t5)
    1e64:	07af2423          	sw	s10,104(t5)
    1e68:	07bf2623          	sw	s11,108(t5)
    1e6c:	07cf2823          	sw	t3,112(t5)
    1e70:	07df2a23          	sw	t4,116(t5)
    1e74:	07ef2c23          	sw	t5,120(t5)
    1e78:	07ff2e23          	sw	t6,124(t5)
    1e7c:	34202d73          	csrrs	s10,mcause,zero
    1e80:	01fd5d13          	srli	s10,s10,0x1f
    1e84:	000d0463          	beq	s10,zero,0x1e8c
    1e88:	4240006f          	jal	zero,0x22ac
    1e8c:	00000f97          	auipc	t6,0x0
    1e90:	844f8f93          	addi	t6,t6,-1980 # 0x16d0
    1e94:	000f8067          	jalr	zero,0(t6)
    1e98:	340f1f73          	csrrw	t5,mscratch,t5
    1e9c:	00048f33          	add	t5,s1,zero
    1ea0:	f84f0f13          	addi	t5,t5,-124
    1ea4:	001f2223          	sw	ra,4(t5)
    1ea8:	002f2423          	sw	sp,8(t5)
    1eac:	003f2623          	sw	gp,12(t5)
    1eb0:	004f2823          	sw	tp,16(t5)
    1eb4:	005f2a23          	sw	t0,20(t5)
    1eb8:	006f2c23          	sw	t1,24(t5)
    1ebc:	007f2e23          	sw	t2,28(t5)
    1ec0:	028f2023          	sw	s0,32(t5)
    1ec4:	029f2223          	sw	s1,36(t5)
    1ec8:	02af2423          	sw	a0,40(t5)
    1ecc:	02bf2623          	sw	a1,44(t5)
    1ed0:	02cf2823          	sw	a2,48(t5)
    1ed4:	02df2a23          	sw	a3,52(t5)
    1ed8:	02ef2c23          	sw	a4,56(t5)
    1edc:	02ff2e23          	sw	a5,60(t5)
    1ee0:	050f2023          	sw	a6,64(t5)
    1ee4:	051f2223          	sw	a7,68(t5)
    1ee8:	052f2423          	sw	s2,72(t5)
    1eec:	053f2623          	sw	s3,76(t5)
    1ef0:	054f2823          	sw	s4,80(t5)
    1ef4:	055f2a23          	sw	s5,84(t5)
    1ef8:	056f2c23          	sw	s6,88(t5)
    1efc:	057f2e23          	sw	s7,92(t5)
    1f00:	078f2023          	sw	s8,96(t5)
    1f04:	079f2223          	sw	s9,100(t5)
    1f08:	07af2423          	sw	s10,104(t5)
    1f0c:	07bf2623          	sw	s11,108(t5)
    1f10:	07cf2823          	sw	t3,112(t5)
    1f14:	07df2a23          	sw	t4,116(t5)
    1f18:	07ef2c23          	sw	t5,120(t5)
    1f1c:	07ff2e23          	sw	t6,124(t5)
    1f20:	34202d73          	csrrs	s10,mcause,zero
    1f24:	01fd5d13          	srli	s10,s10,0x1f
    1f28:	000d0463          	beq	s10,zero,0x1f30
    1f2c:	3800006f          	jal	zero,0x22ac
    1f30:	ffffff97          	auipc	t6,0xfffff
    1f34:	7a0f8f93          	addi	t6,t6,1952 # 0x16d0
    1f38:	000f8067          	jalr	zero,0(t6)
    1f3c:	340f1f73          	csrrw	t5,mscratch,t5
    1f40:	00048f33          	add	t5,s1,zero
    1f44:	f84f0f13          	addi	t5,t5,-124
    1f48:	001f2223          	sw	ra,4(t5)
    1f4c:	002f2423          	sw	sp,8(t5)
    1f50:	003f2623          	sw	gp,12(t5)
    1f54:	004f2823          	sw	tp,16(t5)
    1f58:	005f2a23          	sw	t0,20(t5)
    1f5c:	006f2c23          	sw	t1,24(t5)
    1f60:	007f2e23          	sw	t2,28(t5)
    1f64:	028f2023          	sw	s0,32(t5)
    1f68:	029f2223          	sw	s1,36(t5)
    1f6c:	02af2423          	sw	a0,40(t5)
    1f70:	02bf2623          	sw	a1,44(t5)
    1f74:	02cf2823          	sw	a2,48(t5)
    1f78:	02df2a23          	sw	a3,52(t5)
    1f7c:	02ef2c23          	sw	a4,56(t5)
    1f80:	02ff2e23          	sw	a5,60(t5)
    1f84:	050f2023          	sw	a6,64(t5)
    1f88:	051f2223          	sw	a7,68(t5)
    1f8c:	052f2423          	sw	s2,72(t5)
    1f90:	053f2623          	sw	s3,76(t5)
    1f94:	054f2823          	sw	s4,80(t5)
    1f98:	055f2a23          	sw	s5,84(t5)
    1f9c:	056f2c23          	sw	s6,88(t5)
    1fa0:	057f2e23          	sw	s7,92(t5)
    1fa4:	078f2023          	sw	s8,96(t5)
    1fa8:	079f2223          	sw	s9,100(t5)
    1fac:	07af2423          	sw	s10,104(t5)
    1fb0:	07bf2623          	sw	s11,108(t5)
    1fb4:	07cf2823          	sw	t3,112(t5)
    1fb8:	07df2a23          	sw	t4,116(t5)
    1fbc:	07ef2c23          	sw	t5,120(t5)
    1fc0:	07ff2e23          	sw	t6,124(t5)
    1fc4:	34202d73          	csrrs	s10,mcause,zero
    1fc8:	01fd5d13          	srli	s10,s10,0x1f
    1fcc:	000d0463          	beq	s10,zero,0x1fd4
    1fd0:	2dc0006f          	jal	zero,0x22ac
    1fd4:	ffffff97          	auipc	t6,0xfffff
    1fd8:	6fcf8f93          	addi	t6,t6,1788 # 0x16d0
    1fdc:	000f8067          	jalr	zero,0(t6)
    1fe0:	340f1f73          	csrrw	t5,mscratch,t5
    1fe4:	00048f33          	add	t5,s1,zero
    1fe8:	f84f0f13          	addi	t5,t5,-124
    1fec:	001f2223          	sw	ra,4(t5)
    1ff0:	002f2423          	sw	sp,8(t5)
    1ff4:	003f2623          	sw	gp,12(t5)
    1ff8:	004f2823          	sw	tp,16(t5)
    1ffc:	005f2a23          	sw	t0,20(t5)
    2000:	006f2c23          	sw	t1,24(t5)
    2004:	007f2e23          	sw	t2,28(t5)
    2008:	028f2023          	sw	s0,32(t5)
    200c:	029f2223          	sw	s1,36(t5)
    2010:	02af2423          	sw	a0,40(t5)
    2014:	02bf2623          	sw	a1,44(t5)
    2018:	02cf2823          	sw	a2,48(t5)
    201c:	02df2a23          	sw	a3,52(t5)
    2020:	02ef2c23          	sw	a4,56(t5)
    2024:	02ff2e23          	sw	a5,60(t5)
    2028:	050f2023          	sw	a6,64(t5)
    202c:	051f2223          	sw	a7,68(t5)
    2030:	052f2423          	sw	s2,72(t5)
    2034:	053f2623          	sw	s3,76(t5)
    2038:	054f2823          	sw	s4,80(t5)
    203c:	055f2a23          	sw	s5,84(t5)
    2040:	056f2c23          	sw	s6,88(t5)
    2044:	057f2e23          	sw	s7,92(t5)
    2048:	078f2023          	sw	s8,96(t5)
    204c:	079f2223          	sw	s9,100(t5)
    2050:	07af2423          	sw	s10,104(t5)
    2054:	07bf2623          	sw	s11,108(t5)
    2058:	07cf2823          	sw	t3,112(t5)
    205c:	07df2a23          	sw	t4,116(t5)
    2060:	07ef2c23          	sw	t5,120(t5)
    2064:	07ff2e23          	sw	t6,124(t5)
    2068:	34202d73          	csrrs	s10,mcause,zero
    206c:	01fd5d13          	srli	s10,s10,0x1f
    2070:	000d0463          	beq	s10,zero,0x2078
    2074:	2380006f          	jal	zero,0x22ac
    2078:	ffffff97          	auipc	t6,0xfffff
    207c:	658f8f93          	addi	t6,t6,1624 # 0x16d0
    2080:	000f8067          	jalr	zero,0(t6)
    2084:	00000013          	addi	zero,zero,0
    2088:	00000013          	addi	zero,zero,0
    208c:	00000013          	addi	zero,zero,0
    2090:	0400006f          	jal	zero,0x20d0
    2094:	e54ff06f          	jal	zero,0x16e8
    2098:	ef4ff06f          	jal	zero,0x178c
    209c:	f94ff06f          	jal	zero,0x1830
    20a0:	835ff06f          	jal	zero,0x18d4
    20a4:	8d5ff06f          	jal	zero,0x1978
    20a8:	975ff06f          	jal	zero,0x1a1c
    20ac:	a15ff06f          	jal	zero,0x1ac0
    20b0:	ab5ff06f          	jal	zero,0x1b64
    20b4:	b55ff06f          	jal	zero,0x1c08
    20b8:	bf5ff06f          	jal	zero,0x1cac
    20bc:	c95ff06f          	jal	zero,0x1d50
    20c0:	d35ff06f          	jal	zero,0x1df4
    20c4:	dd5ff06f          	jal	zero,0x1e98
    20c8:	e75ff06f          	jal	zero,0x1f3c
    20cc:	f15ff06f          	jal	zero,0x1fe0
    20d0:	340f1f73          	csrrw	t5,mscratch,t5
    20d4:	00048f33          	add	t5,s1,zero
    20d8:	f84f0f13          	addi	t5,t5,-124
    20dc:	001f2223          	sw	ra,4(t5)
    20e0:	002f2423          	sw	sp,8(t5)
    20e4:	003f2623          	sw	gp,12(t5)
    20e8:	004f2823          	sw	tp,16(t5)
    20ec:	005f2a23          	sw	t0,20(t5)
    20f0:	006f2c23          	sw	t1,24(t5)
    20f4:	007f2e23          	sw	t2,28(t5)
    20f8:	028f2023          	sw	s0,32(t5)
    20fc:	029f2223          	sw	s1,36(t5)
    2100:	02af2423          	sw	a0,40(t5)
    2104:	02bf2623          	sw	a1,44(t5)
    2108:	02cf2823          	sw	a2,48(t5)
    210c:	02df2a23          	sw	a3,52(t5)
    2110:	02ef2c23          	sw	a4,56(t5)
    2114:	02ff2e23          	sw	a5,60(t5)
    2118:	050f2023          	sw	a6,64(t5)
    211c:	051f2223          	sw	a7,68(t5)
    2120:	052f2423          	sw	s2,72(t5)
    2124:	053f2623          	sw	s3,76(t5)
    2128:	054f2823          	sw	s4,80(t5)
    212c:	055f2a23          	sw	s5,84(t5)
    2130:	056f2c23          	sw	s6,88(t5)
    2134:	057f2e23          	sw	s7,92(t5)
    2138:	078f2023          	sw	s8,96(t5)
    213c:	079f2223          	sw	s9,100(t5)
    2140:	07af2423          	sw	s10,104(t5)
    2144:	07bf2623          	sw	s11,108(t5)
    2148:	07cf2823          	sw	t3,112(t5)
    214c:	07df2a23          	sw	t4,116(t5)
    2150:	07ef2c23          	sw	t5,120(t5)
    2154:	07ff2e23          	sw	t6,124(t5)
    2158:	34102d73          	csrrs	s10,mepc,zero
    215c:	34202d73          	csrrs	s10,mcause,zero
    2160:	00b00b13          	addi	s6,zero,11
    2164:	016d0e63          	beq	s10,s6,0x2180
    2168:	00200b13          	addi	s6,zero,2
    216c:	0b6d0463          	beq	s10,s6,0x2214
    2170:	34302b73          	csrrs	s6,mtval,zero
    2174:	ffffff97          	auipc	t6,0xfffff
    2178:	55cf8f93          	addi	t6,t6,1372 # 0x16d0
    217c:	000f80e7          	jalr	ra,0(t6)
    2180:	ffffed17          	auipc	s10,0xffffe
    2184:	e80d0d13          	addi	s10,s10,-384 # 0x0
    2188:	000d2023          	sw	zero,0(s10)
    218c:	001d2223          	sw	ra,4(s10)
    2190:	002d2423          	sw	sp,8(s10)
    2194:	003d2623          	sw	gp,12(s10)
    2198:	004d2823          	sw	tp,16(s10)
    219c:	005d2a23          	sw	t0,20(s10)
    21a0:	006d2c23          	sw	t1,24(s10)
    21a4:	007d2e23          	sw	t2,28(s10)
    21a8:	028d2023          	sw	s0,32(s10)
    21ac:	029d2223          	sw	s1,36(s10)
    21b0:	02ad2423          	sw	a0,40(s10)
    21b4:	02bd2623          	sw	a1,44(s10)
    21b8:	02cd2823          	sw	a2,48(s10)
    21bc:	02dd2a23          	sw	a3,52(s10)
    21c0:	02ed2c23          	sw	a4,56(s10)
    21c4:	02fd2e23          	sw	a5,60(s10)
    21c8:	050d2023          	sw	a6,64(s10)
    21cc:	051d2223          	sw	a7,68(s10)
    21d0:	052d2423          	sw	s2,72(s10)
    21d4:	053d2623          	sw	s3,76(s10)
    21d8:	054d2823          	sw	s4,80(s10)
    21dc:	055d2a23          	sw	s5,84(s10)
    21e0:	056d2c23          	sw	s6,88(s10)
    21e4:	057d2e23          	sw	s7,92(s10)
    21e8:	078d2023          	sw	s8,96(s10)
    21ec:	079d2223          	sw	s9,100(s10)
    21f0:	07ad2423          	sw	s10,104(s10)
    21f4:	07bd2623          	sw	s11,108(s10)
    21f8:	07cd2823          	sw	t3,112(s10)
    21fc:	07dd2a23          	sw	t4,116(s10)
    2200:	07ed2c23          	sw	t5,120(s10)
    2204:	07fd2e23          	sw	t6,124(s10)
    2208:	ffffff97          	auipc	t6,0xfffff
    220c:	4d0f8f93          	addi	t6,t6,1232 # 0x16d8
    2210:	000f8067          	jalr	zero,0(t6)
    2214:	34102d73          	csrrs	s10,mepc,zero
    2218:	004d0d13          	addi	s10,s10,4
    221c:	341d1073          	csrrw	zero,mepc,s10
    2220:	004f2083          	lw	ra,4(t5)
    2224:	008f2103          	lw	sp,8(t5)
    2228:	00cf2183          	lw	gp,12(t5)
    222c:	010f2203          	lw	tp,16(t5)
    2230:	014f2283          	lw	t0,20(t5)
    2234:	018f2303          	lw	t1,24(t5)
    2238:	01cf2383          	lw	t2,28(t5)
    223c:	020f2403          	lw	s0,32(t5)
    2240:	024f2483          	lw	s1,36(t5)
    2244:	028f2503          	lw	a0,40(t5)
    2248:	02cf2583          	lw	a1,44(t5)
    224c:	030f2603          	lw	a2,48(t5)
    2250:	034f2683          	lw	a3,52(t5)
    2254:	038f2703          	lw	a4,56(t5)
    2258:	03cf2783          	lw	a5,60(t5)
    225c:	040f2803          	lw	a6,64(t5)
    2260:	044f2883          	lw	a7,68(t5)
    2264:	048f2903          	lw	s2,72(t5)
    2268:	04cf2983          	lw	s3,76(t5)
    226c:	050f2a03          	lw	s4,80(t5)
    2270:	054f2a83          	lw	s5,84(t5)
    2274:	058f2b03          	lw	s6,88(t5)
    2278:	05cf2b83          	lw	s7,92(t5)
    227c:	060f2c03          	lw	s8,96(t5)
    2280:	064f2c83          	lw	s9,100(t5)
    2284:	068f2d03          	lw	s10,104(t5)
    2288:	06cf2d83          	lw	s11,108(t5)
    228c:	070f2e03          	lw	t3,112(t5)
    2290:	074f2e83          	lw	t4,116(t5)
    2294:	078f2f03          	lw	t5,120(t5)
    2298:	07cf2f83          	lw	t6,124(t5)
    229c:	07cf0f13          	addi	t5,t5,124
    22a0:	000f04b3          	add	s1,t5,zero
    22a4:	340f1f73          	csrrw	t5,mscratch,t5
    22a8:	30200073          	mret
    22ac:	30002d73          	csrrs	s10,mstatus,zero
    22b0:	30402d73          	csrrs	s10,mie,zero
    22b4:	34402d73          	csrrs	s10,mip,zero
    22b8:	344d3d73          	csrrc	s10,mip,s10
    22bc:	004f2083          	lw	ra,4(t5)
    22c0:	008f2103          	lw	sp,8(t5)
    22c4:	00cf2183          	lw	gp,12(t5)
    22c8:	010f2203          	lw	tp,16(t5)
    22cc:	014f2283          	lw	t0,20(t5)
    22d0:	018f2303          	lw	t1,24(t5)
    22d4:	01cf2383          	lw	t2,28(t5)
    22d8:	020f2403          	lw	s0,32(t5)
    22dc:	024f2483          	lw	s1,36(t5)
    22e0:	028f2503          	lw	a0,40(t5)
    22e4:	02cf2583          	lw	a1,44(t5)
    22e8:	030f2603          	lw	a2,48(t5)
    22ec:	034f2683          	lw	a3,52(t5)
    22f0:	038f2703          	lw	a4,56(t5)
    22f4:	03cf2783          	lw	a5,60(t5)
    22f8:	040f2803          	lw	a6,64(t5)
    22fc:	044f2883          	lw	a7,68(t5)
    2300:	048f2903          	lw	s2,72(t5)
    2304:	04cf2983          	lw	s3,76(t5)
    2308:	050f2a03          	lw	s4,80(t5)
    230c:	054f2a83          	lw	s5,84(t5)
    2310:	058f2b03          	lw	s6,88(t5)
    2314:	05cf2b83          	lw	s7,92(t5)
    2318:	060f2c03          	lw	s8,96(t5)
    231c:	064f2c83          	lw	s9,100(t5)
    2320:	068f2d03          	lw	s10,104(t5)
    2324:	06cf2d83          	lw	s11,108(t5)
    2328:	070f2e03          	lw	t3,112(t5)
    232c:	074f2e83          	lw	t4,116(t5)
    2330:	078f2f03          	lw	t5,120(t5)
    2334:	07cf2f83          	lw	t6,124(t5)
    2338:	07cf0f13          	addi	t5,t5,124
    233c:	000f04b3          	add	s1,t5,zero
    2340:	340f1f73          	csrrw	t5,mscratch,t5
    2344:	30200073          	mret
    2348:	00000013          	addi	zero,zero,0
	...
